
proj.elf:     file format elf32-avr

Sections:
Idx Name          Size      VMA       LMA       File off  Algn
  0 .data         000001ea  00800200  00003cb8  00003d4c  2**0
                  CONTENTS, ALLOC, LOAD, DATA
  1 .text         00003cb8  00000000  00000000  00000094  2**1
                  CONTENTS, ALLOC, LOAD, READONLY, CODE
  2 .bss          00000044  008003ea  008003ea  00003f36  2**0
                  ALLOC
  3 .stab         00003984  00000000  00000000  00003f38  2**2
                  CONTENTS, READONLY, DEBUGGING
  4 .stabstr      00001d0e  00000000  00000000  000078bc  2**0
                  CONTENTS, READONLY, DEBUGGING
  5 .comment      00000011  00000000  00000000  000095ca  2**0
                  CONTENTS, READONLY

Disassembly of section .text:

00000000 <__vectors>:
       0:	0c 94 84 00 	jmp	0x108	; 0x108 <__ctors_end>
       4:	0c 94 a5 00 	jmp	0x14a	; 0x14a <__bad_interrupt>
       8:	0c 94 a5 00 	jmp	0x14a	; 0x14a <__bad_interrupt>
       c:	0c 94 a5 00 	jmp	0x14a	; 0x14a <__bad_interrupt>
      10:	0c 94 a5 00 	jmp	0x14a	; 0x14a <__bad_interrupt>
      14:	0c 94 a5 00 	jmp	0x14a	; 0x14a <__bad_interrupt>
      18:	0c 94 a5 00 	jmp	0x14a	; 0x14a <__bad_interrupt>
      1c:	0c 94 a5 00 	jmp	0x14a	; 0x14a <__bad_interrupt>
      20:	0c 94 a5 00 	jmp	0x14a	; 0x14a <__bad_interrupt>
      24:	0c 94 a5 00 	jmp	0x14a	; 0x14a <__bad_interrupt>
      28:	0c 94 a5 00 	jmp	0x14a	; 0x14a <__bad_interrupt>
      2c:	0c 94 a5 00 	jmp	0x14a	; 0x14a <__bad_interrupt>
      30:	0c 94 a5 00 	jmp	0x14a	; 0x14a <__bad_interrupt>
      34:	0c 94 a5 00 	jmp	0x14a	; 0x14a <__bad_interrupt>
      38:	0c 94 a5 00 	jmp	0x14a	; 0x14a <__bad_interrupt>
      3c:	0c 94 a5 00 	jmp	0x14a	; 0x14a <__bad_interrupt>
      40:	0c 94 a5 00 	jmp	0x14a	; 0x14a <__bad_interrupt>
      44:	0c 94 a5 00 	jmp	0x14a	; 0x14a <__bad_interrupt>
      48:	0c 94 a5 00 	jmp	0x14a	; 0x14a <__bad_interrupt>
      4c:	0c 94 a5 00 	jmp	0x14a	; 0x14a <__bad_interrupt>
      50:	0c 94 a5 00 	jmp	0x14a	; 0x14a <__bad_interrupt>
      54:	0c 94 a5 00 	jmp	0x14a	; 0x14a <__bad_interrupt>
      58:	0c 94 a5 00 	jmp	0x14a	; 0x14a <__bad_interrupt>
      5c:	0c 94 a5 00 	jmp	0x14a	; 0x14a <__bad_interrupt>
      60:	0c 94 a5 00 	jmp	0x14a	; 0x14a <__bad_interrupt>
      64:	0c 94 a5 00 	jmp	0x14a	; 0x14a <__bad_interrupt>
      68:	0c 94 a5 00 	jmp	0x14a	; 0x14a <__bad_interrupt>
      6c:	0c 94 a5 00 	jmp	0x14a	; 0x14a <__bad_interrupt>
      70:	0c 94 a5 00 	jmp	0x14a	; 0x14a <__bad_interrupt>
      74:	0c 94 a5 00 	jmp	0x14a	; 0x14a <__bad_interrupt>
      78:	0c 94 a5 00 	jmp	0x14a	; 0x14a <__bad_interrupt>
      7c:	0c 94 a5 00 	jmp	0x14a	; 0x14a <__bad_interrupt>
      80:	0c 94 a5 00 	jmp	0x14a	; 0x14a <__bad_interrupt>
      84:	0c 94 a5 00 	jmp	0x14a	; 0x14a <__bad_interrupt>
      88:	0c 94 a5 00 	jmp	0x14a	; 0x14a <__bad_interrupt>
      8c:	0c 94 a5 00 	jmp	0x14a	; 0x14a <__bad_interrupt>
      90:	0c 94 a5 00 	jmp	0x14a	; 0x14a <__bad_interrupt>
      94:	0c 94 a5 00 	jmp	0x14a	; 0x14a <__bad_interrupt>
      98:	0c 94 a5 00 	jmp	0x14a	; 0x14a <__bad_interrupt>
      9c:	0c 94 a5 00 	jmp	0x14a	; 0x14a <__bad_interrupt>
      a0:	0c 94 a5 00 	jmp	0x14a	; 0x14a <__bad_interrupt>
      a4:	0c 94 a5 00 	jmp	0x14a	; 0x14a <__bad_interrupt>
      a8:	0c 94 a5 00 	jmp	0x14a	; 0x14a <__bad_interrupt>
      ac:	0c 94 a5 00 	jmp	0x14a	; 0x14a <__bad_interrupt>
      b0:	0c 94 a5 00 	jmp	0x14a	; 0x14a <__bad_interrupt>
      b4:	0c 94 a5 00 	jmp	0x14a	; 0x14a <__bad_interrupt>
      b8:	0c 94 a5 00 	jmp	0x14a	; 0x14a <__bad_interrupt>
      bc:	0c 94 a5 00 	jmp	0x14a	; 0x14a <__bad_interrupt>
      c0:	0c 94 a5 00 	jmp	0x14a	; 0x14a <__bad_interrupt>
      c4:	0c 94 a5 00 	jmp	0x14a	; 0x14a <__bad_interrupt>
      c8:	0c 94 a5 00 	jmp	0x14a	; 0x14a <__bad_interrupt>
      cc:	0c 94 a5 00 	jmp	0x14a	; 0x14a <__bad_interrupt>
      d0:	0c 94 a5 00 	jmp	0x14a	; 0x14a <__bad_interrupt>
      d4:	0c 94 a5 00 	jmp	0x14a	; 0x14a <__bad_interrupt>
      d8:	0c 94 a5 00 	jmp	0x14a	; 0x14a <__bad_interrupt>
      dc:	0c 94 a5 00 	jmp	0x14a	; 0x14a <__bad_interrupt>
      e0:	0c 94 a5 00 	jmp	0x14a	; 0x14a <__bad_interrupt>
      e4:	34 11       	cpse	r19, r4
      e6:	34 11       	cpse	r19, r4
      e8:	7b 11       	cpse	r23, r11
      ea:	7b 11       	cpse	r23, r11
      ec:	c2 11       	cpse	r28, r2
      ee:	c2 11       	cpse	r28, r2
      f0:	d9 11       	cpse	r29, r9
      f2:	d9 11       	cpse	r29, r9

000000f4 <__trampolines_start>:
      f4:	0c 94 34 11 	jmp	0x2268	; 0x2268 <__stack+0x69>
      f8:	0c 94 d9 11 	jmp	0x23b2	; 0x23b2 <__stack+0x1b3>
      fc:	0c 94 c7 00 	jmp	0x18e	; 0x18e <test>
     100:	0c 94 7b 11 	jmp	0x22f6	; 0x22f6 <__stack+0xf7>
     104:	0c 94 c2 11 	jmp	0x2384	; 0x2384 <__stack+0x185>

00000108 <__ctors_end>:
     108:	11 24       	eor	r1, r1
     10a:	1f be       	out	0x3f, r1	; 63
     10c:	cf ef       	ldi	r28, 0xFF	; 255
     10e:	d1 e2       	ldi	r29, 0x21	; 33
     110:	de bf       	out	0x3e, r29	; 62
     112:	cd bf       	out	0x3d, r28	; 61
     114:	00 e0       	ldi	r16, 0x00	; 0
     116:	0c bf       	out	0x3c, r16	; 60

00000118 <__do_copy_data>:
     118:	13 e0       	ldi	r17, 0x03	; 3
     11a:	a0 e0       	ldi	r26, 0x00	; 0
     11c:	b2 e0       	ldi	r27, 0x02	; 2
     11e:	e8 eb       	ldi	r30, 0xB8	; 184
     120:	fc e3       	ldi	r31, 0x3C	; 60
     122:	00 e0       	ldi	r16, 0x00	; 0
     124:	0b bf       	out	0x3b, r16	; 59
     126:	02 c0       	rjmp	.+4      	; 0x12c <__do_copy_data+0x14>
     128:	07 90       	elpm	r0, Z+
     12a:	0d 92       	st	X+, r0
     12c:	aa 3e       	cpi	r26, 0xEA	; 234
     12e:	b1 07       	cpc	r27, r17
     130:	d9 f7       	brne	.-10     	; 0x128 <__do_copy_data+0x10>

00000132 <__do_clear_bss>:
     132:	14 e0       	ldi	r17, 0x04	; 4
     134:	aa ee       	ldi	r26, 0xEA	; 234
     136:	b3 e0       	ldi	r27, 0x03	; 3
     138:	01 c0       	rjmp	.+2      	; 0x13c <.do_clear_bss_start>

0000013a <.do_clear_bss_loop>:
     13a:	1d 92       	st	X+, r1

0000013c <.do_clear_bss_start>:
     13c:	ae 32       	cpi	r26, 0x2E	; 46
     13e:	b1 07       	cpc	r27, r17
     140:	e1 f7       	brne	.-8      	; 0x13a <.do_clear_bss_loop>
     142:	0e 94 71 1b 	call	0x36e2	; 0x36e2 <main>
     146:	0c 94 5a 1e 	jmp	0x3cb4	; 0x3cb4 <_exit>

0000014a <__bad_interrupt>:
     14a:	0c 94 00 00 	jmp	0	; 0x0 <__vectors>

0000014e <Bar_LED_Config>:


//Function to configure LCD port
void Bar_LED_Config(void)
{
 DDRJ = DDRJ | 0xFF; //all the LCD pin's direction set as output
     14e:	e4 e0       	ldi	r30, 0x04	; 4
     150:	f1 e0       	ldi	r31, 0x01	; 1
     152:	80 81       	ld	r24, Z
     154:	8f ef       	ldi	r24, 0xFF	; 255
     156:	80 83       	st	Z, r24
 PORTJ = PORTJ | 0xFA; // all the LCD pins are set to logic 0 except PORTC 7
     158:	e5 e0       	ldi	r30, 0x05	; 5
     15a:	f1 e0       	ldi	r31, 0x01	; 1
     15c:	80 81       	ld	r24, Z
     15e:	8a 6f       	ori	r24, 0xFA	; 250
     160:	80 83       	st	Z, r24
     162:	08 95       	ret

00000164 <disable_Bar_LED>:
}

void disable_Bar_LED()
{
DDRC = DDRJ & 0x00;
     164:	80 91 04 01 	lds	r24, 0x0104
     168:	17 b8       	out	0x07, r1	; 7
PORTJ = PORTJ & 0x00;
     16a:	e5 e0       	ldi	r30, 0x05	; 5
     16c:	f1 e0       	ldi	r31, 0x01	; 1
     16e:	80 81       	ld	r24, Z
     170:	10 82       	st	Z, r1
     172:	08 95       	ret

00000174 <port_init>:
}

//Function to Initialize PORTS
void port_init()
{
	Bar_LED_Config();
     174:	0c 94 a7 00 	jmp	0x14e	; 0x14e <Bar_LED_Config>

00000178 <clear>:
}

void clear()
{
 PORTJ = PORTJ & 0x00;
     178:	e5 e0       	ldi	r30, 0x05	; 5
     17a:	f1 e0       	ldi	r31, 0x01	; 1
     17c:	80 81       	ld	r24, Z
     17e:	10 82       	st	Z, r1
     180:	08 95       	ret

00000182 <Set_LED>:
}

void Set_LED(int x)
{
PORTJ = PORTJ | x;
     182:	e5 e0       	ldi	r30, 0x05	; 5
     184:	f1 e0       	ldi	r31, 0x01	; 1
     186:	90 81       	ld	r25, Z
     188:	98 2b       	or	r25, r24
     18a:	90 83       	st	Z, r25
     18c:	08 95       	ret

0000018e <test>:
#include "Atmega2560.h"
#include "/home/vinay/Desktop/Unity-master/src/unity.h"
#include "Bar_LED.h"

void test(void)
{
     18e:	af 92       	push	r10
     190:	bf 92       	push	r11
     192:	cf 92       	push	r12
     194:	df 92       	push	r13
     196:	ef 92       	push	r14
     198:	ff 92       	push	r15
     19a:	0f 93       	push	r16
     19c:	1f 93       	push	r17
port_init();
     19e:	0e 94 ba 00 	call	0x174	; 0x174 <port_init>
TEST_ASSERT_EQUAL_INT (0xFF, DDRJ);
     1a2:	20 91 ef 03 	lds	r18, 0x03EF
     1a6:	30 e0       	ldi	r19, 0x00	; 0
     1a8:	40 e0       	ldi	r20, 0x00	; 0
     1aa:	50 e0       	ldi	r21, 0x00	; 0
     1ac:	82 e1       	ldi	r24, 0x12	; 18
     1ae:	a8 2e       	mov	r10, r24
     1b0:	b1 2c       	mov	r11, r1
     1b2:	9a e0       	ldi	r25, 0x0A	; 10
     1b4:	c9 2e       	mov	r12, r25
     1b6:	d1 2c       	mov	r13, r1
     1b8:	e1 2c       	mov	r14, r1
     1ba:	f1 2c       	mov	r15, r1
     1bc:	00 e0       	ldi	r16, 0x00	; 0
     1be:	10 e0       	ldi	r17, 0x00	; 0
     1c0:	6f ef       	ldi	r22, 0xFF	; 255
     1c2:	70 e0       	ldi	r23, 0x00	; 0
     1c4:	80 e0       	ldi	r24, 0x00	; 0
     1c6:	90 e0       	ldi	r25, 0x00	; 0
     1c8:	0e 94 ea 0a 	call	0x15d4	; 0x15d4 <UnityAssertEqualNumber>
TEST_ASSERT_EQUAL_INT (0xFA, PORTJ);
     1cc:	20 91 ee 03 	lds	r18, 0x03EE
     1d0:	30 e0       	ldi	r19, 0x00	; 0
     1d2:	40 e0       	ldi	r20, 0x00	; 0
     1d4:	50 e0       	ldi	r21, 0x00	; 0
     1d6:	6b e0       	ldi	r22, 0x0B	; 11
     1d8:	c6 2e       	mov	r12, r22
     1da:	d1 2c       	mov	r13, r1
     1dc:	e1 2c       	mov	r14, r1
     1de:	f1 2c       	mov	r15, r1
     1e0:	6a ef       	ldi	r22, 0xFA	; 250
     1e2:	70 e0       	ldi	r23, 0x00	; 0
     1e4:	80 e0       	ldi	r24, 0x00	; 0
     1e6:	90 e0       	ldi	r25, 0x00	; 0
     1e8:	0e 94 ea 0a 	call	0x15d4	; 0x15d4 <UnityAssertEqualNumber>
clear();
     1ec:	0e 94 bc 00 	call	0x178	; 0x178 <clear>
TEST_ASSERT_EQUAL_INT (0x00, PORTJ);
     1f0:	20 91 ee 03 	lds	r18, 0x03EE
     1f4:	30 e0       	ldi	r19, 0x00	; 0
     1f6:	40 e0       	ldi	r20, 0x00	; 0
     1f8:	50 e0       	ldi	r21, 0x00	; 0
     1fa:	7d e0       	ldi	r23, 0x0D	; 13
     1fc:	c7 2e       	mov	r12, r23
     1fe:	d1 2c       	mov	r13, r1
     200:	e1 2c       	mov	r14, r1
     202:	f1 2c       	mov	r15, r1
     204:	60 e0       	ldi	r22, 0x00	; 0
     206:	70 e0       	ldi	r23, 0x00	; 0
     208:	cb 01       	movw	r24, r22
     20a:	0e 94 ea 0a 	call	0x15d4	; 0x15d4 <UnityAssertEqualNumber>
Set_LED(0x64);
     20e:	84 e6       	ldi	r24, 0x64	; 100
     210:	90 e0       	ldi	r25, 0x00	; 0
     212:	0e 94 c1 00 	call	0x182	; 0x182 <Set_LED>
TEST_ASSERT_EQUAL_INT (0xFF, DDRJ);
     216:	20 91 ef 03 	lds	r18, 0x03EF
     21a:	30 e0       	ldi	r19, 0x00	; 0
     21c:	40 e0       	ldi	r20, 0x00	; 0
     21e:	50 e0       	ldi	r21, 0x00	; 0
     220:	ef e0       	ldi	r30, 0x0F	; 15
     222:	ce 2e       	mov	r12, r30
     224:	d1 2c       	mov	r13, r1
     226:	e1 2c       	mov	r14, r1
     228:	f1 2c       	mov	r15, r1
     22a:	6f ef       	ldi	r22, 0xFF	; 255
     22c:	70 e0       	ldi	r23, 0x00	; 0
     22e:	80 e0       	ldi	r24, 0x00	; 0
     230:	90 e0       	ldi	r25, 0x00	; 0
     232:	0e 94 ea 0a 	call	0x15d4	; 0x15d4 <UnityAssertEqualNumber>
TEST_ASSERT_EQUAL_INT (0x64, PORTJ);
     236:	20 91 ee 03 	lds	r18, 0x03EE
     23a:	30 e0       	ldi	r19, 0x00	; 0
     23c:	40 e0       	ldi	r20, 0x00	; 0
     23e:	50 e0       	ldi	r21, 0x00	; 0
     240:	f0 e1       	ldi	r31, 0x10	; 16
     242:	cf 2e       	mov	r12, r31
     244:	d1 2c       	mov	r13, r1
     246:	e1 2c       	mov	r14, r1
     248:	f1 2c       	mov	r15, r1
     24a:	64 e6       	ldi	r22, 0x64	; 100
     24c:	70 e0       	ldi	r23, 0x00	; 0
     24e:	80 e0       	ldi	r24, 0x00	; 0
     250:	90 e0       	ldi	r25, 0x00	; 0
     252:	0e 94 ea 0a 	call	0x15d4	; 0x15d4 <UnityAssertEqualNumber>
disable_Bar_LED();
     256:	0e 94 b2 00 	call	0x164	; 0x164 <disable_Bar_LED>
TEST_ASSERT_EQUAL_INT (0x00, DDRJ);
     25a:	20 91 ef 03 	lds	r18, 0x03EF
     25e:	30 e0       	ldi	r19, 0x00	; 0
     260:	40 e0       	ldi	r20, 0x00	; 0
     262:	50 e0       	ldi	r21, 0x00	; 0
     264:	a2 e1       	ldi	r26, 0x12	; 18
     266:	ca 2e       	mov	r12, r26
     268:	d1 2c       	mov	r13, r1
     26a:	e1 2c       	mov	r14, r1
     26c:	f1 2c       	mov	r15, r1
     26e:	60 e0       	ldi	r22, 0x00	; 0
     270:	70 e0       	ldi	r23, 0x00	; 0
     272:	cb 01       	movw	r24, r22
     274:	0e 94 ea 0a 	call	0x15d4	; 0x15d4 <UnityAssertEqualNumber>
TEST_ASSERT_EQUAL_INT (0x00, PORTJ);
     278:	20 91 ee 03 	lds	r18, 0x03EE
     27c:	30 e0       	ldi	r19, 0x00	; 0
     27e:	40 e0       	ldi	r20, 0x00	; 0
     280:	50 e0       	ldi	r21, 0x00	; 0
     282:	b3 e1       	ldi	r27, 0x13	; 19
     284:	cb 2e       	mov	r12, r27
     286:	d1 2c       	mov	r13, r1
     288:	e1 2c       	mov	r14, r1
     28a:	f1 2c       	mov	r15, r1
     28c:	60 e0       	ldi	r22, 0x00	; 0
     28e:	70 e0       	ldi	r23, 0x00	; 0
     290:	cb 01       	movw	r24, r22
     292:	0e 94 ea 0a 	call	0x15d4	; 0x15d4 <UnityAssertEqualNumber>

}
     296:	1f 91       	pop	r17
     298:	0f 91       	pop	r16
     29a:	ff 90       	pop	r15
     29c:	ef 90       	pop	r14
     29e:	df 90       	pop	r13
     2a0:	cf 90       	pop	r12
     2a2:	bf 90       	pop	r11
     2a4:	af 90       	pop	r10
     2a6:	08 95       	ret

000002a8 <UnityPrint>:
     2a8:	cf 93       	push	r28
     2aa:	df 93       	push	r29
     2ac:	00 d0       	rcall	.+0      	; 0x2ae <UnityPrint+0x6>
     2ae:	1f 92       	push	r1
     2b0:	cd b7       	in	r28, 0x3d	; 61
     2b2:	de b7       	in	r29, 0x3e	; 62
     2b4:	9c 83       	std	Y+4, r25	; 0x04
     2b6:	8b 83       	std	Y+3, r24	; 0x03
     2b8:	8b 81       	ldd	r24, Y+3	; 0x03
     2ba:	9c 81       	ldd	r25, Y+4	; 0x04
     2bc:	9a 83       	std	Y+2, r25	; 0x02
     2be:	89 83       	std	Y+1, r24	; 0x01
     2c0:	89 81       	ldd	r24, Y+1	; 0x01
     2c2:	9a 81       	ldd	r25, Y+2	; 0x02
     2c4:	00 97       	sbiw	r24, 0x00	; 0
     2c6:	09 f4       	brne	.+2      	; 0x2ca <UnityPrint+0x22>
     2c8:	7a c0       	rjmp	.+244    	; 0x3be <UnityPrint+0x116>
     2ca:	72 c0       	rjmp	.+228    	; 0x3b0 <UnityPrint+0x108>
     2cc:	89 81       	ldd	r24, Y+1	; 0x01
     2ce:	9a 81       	ldd	r25, Y+2	; 0x02
     2d0:	fc 01       	movw	r30, r24
     2d2:	80 81       	ld	r24, Z
     2d4:	8f 37       	cpi	r24, 0x7F	; 127
     2d6:	a9 f0       	breq	.+42     	; 0x302 <UnityPrint+0x5a>
     2d8:	89 81       	ldd	r24, Y+1	; 0x01
     2da:	9a 81       	ldd	r25, Y+2	; 0x02
     2dc:	fc 01       	movw	r30, r24
     2de:	80 81       	ld	r24, Z
     2e0:	80 32       	cpi	r24, 0x20	; 32
     2e2:	7c f0       	brlt	.+30     	; 0x302 <UnityPrint+0x5a>
     2e4:	20 91 2a 04 	lds	r18, 0x042A
     2e8:	30 91 2b 04 	lds	r19, 0x042B
     2ec:	89 81       	ldd	r24, Y+1	; 0x01
     2ee:	9a 81       	ldd	r25, Y+2	; 0x02
     2f0:	fc 01       	movw	r30, r24
     2f2:	80 81       	ld	r24, Z
     2f4:	99 27       	eor	r25, r25
     2f6:	87 fd       	sbrc	r24, 7
     2f8:	90 95       	com	r25
     2fa:	b9 01       	movw	r22, r18
     2fc:	0e 94 28 1e 	call	0x3c50	; 0x3c50 <fputc>
     300:	52 c0       	rjmp	.+164    	; 0x3a6 <UnityPrint+0xfe>
     302:	89 81       	ldd	r24, Y+1	; 0x01
     304:	9a 81       	ldd	r25, Y+2	; 0x02
     306:	fc 01       	movw	r30, r24
     308:	80 81       	ld	r24, Z
     30a:	8d 30       	cpi	r24, 0x0D	; 13
     30c:	99 f4       	brne	.+38     	; 0x334 <UnityPrint+0x8c>
     30e:	80 91 2a 04 	lds	r24, 0x042A
     312:	90 91 2b 04 	lds	r25, 0x042B
     316:	bc 01       	movw	r22, r24
     318:	8c e5       	ldi	r24, 0x5C	; 92
     31a:	90 e0       	ldi	r25, 0x00	; 0
     31c:	0e 94 28 1e 	call	0x3c50	; 0x3c50 <fputc>
     320:	80 91 2a 04 	lds	r24, 0x042A
     324:	90 91 2b 04 	lds	r25, 0x042B
     328:	bc 01       	movw	r22, r24
     32a:	82 e7       	ldi	r24, 0x72	; 114
     32c:	90 e0       	ldi	r25, 0x00	; 0
     32e:	0e 94 28 1e 	call	0x3c50	; 0x3c50 <fputc>
     332:	39 c0       	rjmp	.+114    	; 0x3a6 <UnityPrint+0xfe>
     334:	89 81       	ldd	r24, Y+1	; 0x01
     336:	9a 81       	ldd	r25, Y+2	; 0x02
     338:	fc 01       	movw	r30, r24
     33a:	80 81       	ld	r24, Z
     33c:	8a 30       	cpi	r24, 0x0A	; 10
     33e:	99 f4       	brne	.+38     	; 0x366 <UnityPrint+0xbe>
     340:	80 91 2a 04 	lds	r24, 0x042A
     344:	90 91 2b 04 	lds	r25, 0x042B
     348:	bc 01       	movw	r22, r24
     34a:	8c e5       	ldi	r24, 0x5C	; 92
     34c:	90 e0       	ldi	r25, 0x00	; 0
     34e:	0e 94 28 1e 	call	0x3c50	; 0x3c50 <fputc>
     352:	80 91 2a 04 	lds	r24, 0x042A
     356:	90 91 2b 04 	lds	r25, 0x042B
     35a:	bc 01       	movw	r22, r24
     35c:	8e e6       	ldi	r24, 0x6E	; 110
     35e:	90 e0       	ldi	r25, 0x00	; 0
     360:	0e 94 28 1e 	call	0x3c50	; 0x3c50 <fputc>
     364:	20 c0       	rjmp	.+64     	; 0x3a6 <UnityPrint+0xfe>
     366:	80 91 2a 04 	lds	r24, 0x042A
     36a:	90 91 2b 04 	lds	r25, 0x042B
     36e:	bc 01       	movw	r22, r24
     370:	8c e5       	ldi	r24, 0x5C	; 92
     372:	90 e0       	ldi	r25, 0x00	; 0
     374:	0e 94 28 1e 	call	0x3c50	; 0x3c50 <fputc>
     378:	80 91 2a 04 	lds	r24, 0x042A
     37c:	90 91 2b 04 	lds	r25, 0x042B
     380:	bc 01       	movw	r22, r24
     382:	88 e7       	ldi	r24, 0x78	; 120
     384:	90 e0       	ldi	r25, 0x00	; 0
     386:	0e 94 28 1e 	call	0x3c50	; 0x3c50 <fputc>
     38a:	89 81       	ldd	r24, Y+1	; 0x01
     38c:	9a 81       	ldd	r25, Y+2	; 0x02
     38e:	fc 01       	movw	r30, r24
     390:	80 81       	ld	r24, Z
     392:	99 27       	eor	r25, r25
     394:	87 fd       	sbrc	r24, 7
     396:	90 95       	com	r25
     398:	a9 2f       	mov	r26, r25
     39a:	b9 2f       	mov	r27, r25
     39c:	42 e0       	ldi	r20, 0x02	; 2
     39e:	bc 01       	movw	r22, r24
     3a0:	cd 01       	movw	r24, r26
     3a2:	0e 94 bd 03 	call	0x77a	; 0x77a <UnityPrintNumberHex>
     3a6:	89 81       	ldd	r24, Y+1	; 0x01
     3a8:	9a 81       	ldd	r25, Y+2	; 0x02
     3aa:	01 96       	adiw	r24, 0x01	; 1
     3ac:	9a 83       	std	Y+2, r25	; 0x02
     3ae:	89 83       	std	Y+1, r24	; 0x01
     3b0:	89 81       	ldd	r24, Y+1	; 0x01
     3b2:	9a 81       	ldd	r25, Y+2	; 0x02
     3b4:	fc 01       	movw	r30, r24
     3b6:	80 81       	ld	r24, Z
     3b8:	88 23       	and	r24, r24
     3ba:	09 f0       	breq	.+2      	; 0x3be <UnityPrint+0x116>
     3bc:	87 cf       	rjmp	.-242    	; 0x2cc <UnityPrint+0x24>
     3be:	0f 90       	pop	r0
     3c0:	0f 90       	pop	r0
     3c2:	0f 90       	pop	r0
     3c4:	0f 90       	pop	r0
     3c6:	df 91       	pop	r29
     3c8:	cf 91       	pop	r28
     3ca:	08 95       	ret

000003cc <UnityPrintLen>:
     3cc:	cf 93       	push	r28
     3ce:	df 93       	push	r29
     3d0:	cd b7       	in	r28, 0x3d	; 61
     3d2:	de b7       	in	r29, 0x3e	; 62
     3d4:	28 97       	sbiw	r28, 0x08	; 8
     3d6:	0f b6       	in	r0, 0x3f	; 63
     3d8:	f8 94       	cli
     3da:	de bf       	out	0x3e, r29	; 62
     3dc:	0f be       	out	0x3f, r0	; 63
     3de:	cd bf       	out	0x3d, r28	; 61
     3e0:	9c 83       	std	Y+4, r25	; 0x04
     3e2:	8b 83       	std	Y+3, r24	; 0x03
     3e4:	4d 83       	std	Y+5, r20	; 0x05
     3e6:	5e 83       	std	Y+6, r21	; 0x06
     3e8:	6f 83       	std	Y+7, r22	; 0x07
     3ea:	78 87       	std	Y+8, r23	; 0x08
     3ec:	8b 81       	ldd	r24, Y+3	; 0x03
     3ee:	9c 81       	ldd	r25, Y+4	; 0x04
     3f0:	9a 83       	std	Y+2, r25	; 0x02
     3f2:	89 83       	std	Y+1, r24	; 0x01
     3f4:	89 81       	ldd	r24, Y+1	; 0x01
     3f6:	9a 81       	ldd	r25, Y+2	; 0x02
     3f8:	00 97       	sbiw	r24, 0x00	; 0
     3fa:	09 f4       	brne	.+2      	; 0x3fe <UnityPrintLen+0x32>
     3fc:	90 c0       	rjmp	.+288    	; 0x51e <UnityPrintLen+0x152>
     3fe:	72 c0       	rjmp	.+228    	; 0x4e4 <UnityPrintLen+0x118>
     400:	89 81       	ldd	r24, Y+1	; 0x01
     402:	9a 81       	ldd	r25, Y+2	; 0x02
     404:	fc 01       	movw	r30, r24
     406:	80 81       	ld	r24, Z
     408:	8f 37       	cpi	r24, 0x7F	; 127
     40a:	a9 f0       	breq	.+42     	; 0x436 <UnityPrintLen+0x6a>
     40c:	89 81       	ldd	r24, Y+1	; 0x01
     40e:	9a 81       	ldd	r25, Y+2	; 0x02
     410:	fc 01       	movw	r30, r24
     412:	80 81       	ld	r24, Z
     414:	80 32       	cpi	r24, 0x20	; 32
     416:	7c f0       	brlt	.+30     	; 0x436 <UnityPrintLen+0x6a>
     418:	20 91 2a 04 	lds	r18, 0x042A
     41c:	30 91 2b 04 	lds	r19, 0x042B
     420:	89 81       	ldd	r24, Y+1	; 0x01
     422:	9a 81       	ldd	r25, Y+2	; 0x02
     424:	fc 01       	movw	r30, r24
     426:	80 81       	ld	r24, Z
     428:	99 27       	eor	r25, r25
     42a:	87 fd       	sbrc	r24, 7
     42c:	90 95       	com	r25
     42e:	b9 01       	movw	r22, r18
     430:	0e 94 28 1e 	call	0x3c50	; 0x3c50 <fputc>
     434:	52 c0       	rjmp	.+164    	; 0x4da <UnityPrintLen+0x10e>
     436:	89 81       	ldd	r24, Y+1	; 0x01
     438:	9a 81       	ldd	r25, Y+2	; 0x02
     43a:	fc 01       	movw	r30, r24
     43c:	80 81       	ld	r24, Z
     43e:	8d 30       	cpi	r24, 0x0D	; 13
     440:	99 f4       	brne	.+38     	; 0x468 <UnityPrintLen+0x9c>
     442:	80 91 2a 04 	lds	r24, 0x042A
     446:	90 91 2b 04 	lds	r25, 0x042B
     44a:	bc 01       	movw	r22, r24
     44c:	8c e5       	ldi	r24, 0x5C	; 92
     44e:	90 e0       	ldi	r25, 0x00	; 0
     450:	0e 94 28 1e 	call	0x3c50	; 0x3c50 <fputc>
     454:	80 91 2a 04 	lds	r24, 0x042A
     458:	90 91 2b 04 	lds	r25, 0x042B
     45c:	bc 01       	movw	r22, r24
     45e:	82 e7       	ldi	r24, 0x72	; 114
     460:	90 e0       	ldi	r25, 0x00	; 0
     462:	0e 94 28 1e 	call	0x3c50	; 0x3c50 <fputc>
     466:	39 c0       	rjmp	.+114    	; 0x4da <UnityPrintLen+0x10e>
     468:	89 81       	ldd	r24, Y+1	; 0x01
     46a:	9a 81       	ldd	r25, Y+2	; 0x02
     46c:	fc 01       	movw	r30, r24
     46e:	80 81       	ld	r24, Z
     470:	8a 30       	cpi	r24, 0x0A	; 10
     472:	99 f4       	brne	.+38     	; 0x49a <UnityPrintLen+0xce>
     474:	80 91 2a 04 	lds	r24, 0x042A
     478:	90 91 2b 04 	lds	r25, 0x042B
     47c:	bc 01       	movw	r22, r24
     47e:	8c e5       	ldi	r24, 0x5C	; 92
     480:	90 e0       	ldi	r25, 0x00	; 0
     482:	0e 94 28 1e 	call	0x3c50	; 0x3c50 <fputc>
     486:	80 91 2a 04 	lds	r24, 0x042A
     48a:	90 91 2b 04 	lds	r25, 0x042B
     48e:	bc 01       	movw	r22, r24
     490:	8e e6       	ldi	r24, 0x6E	; 110
     492:	90 e0       	ldi	r25, 0x00	; 0
     494:	0e 94 28 1e 	call	0x3c50	; 0x3c50 <fputc>
     498:	20 c0       	rjmp	.+64     	; 0x4da <UnityPrintLen+0x10e>
     49a:	80 91 2a 04 	lds	r24, 0x042A
     49e:	90 91 2b 04 	lds	r25, 0x042B
     4a2:	bc 01       	movw	r22, r24
     4a4:	8c e5       	ldi	r24, 0x5C	; 92
     4a6:	90 e0       	ldi	r25, 0x00	; 0
     4a8:	0e 94 28 1e 	call	0x3c50	; 0x3c50 <fputc>
     4ac:	80 91 2a 04 	lds	r24, 0x042A
     4b0:	90 91 2b 04 	lds	r25, 0x042B
     4b4:	bc 01       	movw	r22, r24
     4b6:	88 e7       	ldi	r24, 0x78	; 120
     4b8:	90 e0       	ldi	r25, 0x00	; 0
     4ba:	0e 94 28 1e 	call	0x3c50	; 0x3c50 <fputc>
     4be:	89 81       	ldd	r24, Y+1	; 0x01
     4c0:	9a 81       	ldd	r25, Y+2	; 0x02
     4c2:	fc 01       	movw	r30, r24
     4c4:	80 81       	ld	r24, Z
     4c6:	99 27       	eor	r25, r25
     4c8:	87 fd       	sbrc	r24, 7
     4ca:	90 95       	com	r25
     4cc:	a9 2f       	mov	r26, r25
     4ce:	b9 2f       	mov	r27, r25
     4d0:	42 e0       	ldi	r20, 0x02	; 2
     4d2:	bc 01       	movw	r22, r24
     4d4:	cd 01       	movw	r24, r26
     4d6:	0e 94 bd 03 	call	0x77a	; 0x77a <UnityPrintNumberHex>
     4da:	89 81       	ldd	r24, Y+1	; 0x01
     4dc:	9a 81       	ldd	r25, Y+2	; 0x02
     4de:	01 96       	adiw	r24, 0x01	; 1
     4e0:	9a 83       	std	Y+2, r25	; 0x02
     4e2:	89 83       	std	Y+1, r24	; 0x01
     4e4:	89 81       	ldd	r24, Y+1	; 0x01
     4e6:	9a 81       	ldd	r25, Y+2	; 0x02
     4e8:	fc 01       	movw	r30, r24
     4ea:	80 81       	ld	r24, Z
     4ec:	88 23       	and	r24, r24
     4ee:	b9 f0       	breq	.+46     	; 0x51e <UnityPrintLen+0x152>
     4f0:	29 81       	ldd	r18, Y+1	; 0x01
     4f2:	3a 81       	ldd	r19, Y+2	; 0x02
     4f4:	8b 81       	ldd	r24, Y+3	; 0x03
     4f6:	9c 81       	ldd	r25, Y+4	; 0x04
     4f8:	a9 01       	movw	r20, r18
     4fa:	48 1b       	sub	r20, r24
     4fc:	59 0b       	sbc	r21, r25
     4fe:	ca 01       	movw	r24, r20
     500:	9c 01       	movw	r18, r24
     502:	44 27       	eor	r20, r20
     504:	37 fd       	sbrc	r19, 7
     506:	40 95       	com	r20
     508:	54 2f       	mov	r21, r20
     50a:	8d 81       	ldd	r24, Y+5	; 0x05
     50c:	9e 81       	ldd	r25, Y+6	; 0x06
     50e:	af 81       	ldd	r26, Y+7	; 0x07
     510:	b8 85       	ldd	r27, Y+8	; 0x08
     512:	28 17       	cp	r18, r24
     514:	39 07       	cpc	r19, r25
     516:	4a 07       	cpc	r20, r26
     518:	5b 07       	cpc	r21, r27
     51a:	08 f4       	brcc	.+2      	; 0x51e <UnityPrintLen+0x152>
     51c:	71 cf       	rjmp	.-286    	; 0x400 <UnityPrintLen+0x34>
     51e:	28 96       	adiw	r28, 0x08	; 8
     520:	0f b6       	in	r0, 0x3f	; 63
     522:	f8 94       	cli
     524:	de bf       	out	0x3e, r29	; 62
     526:	0f be       	out	0x3f, r0	; 63
     528:	cd bf       	out	0x3d, r28	; 61
     52a:	df 91       	pop	r29
     52c:	cf 91       	pop	r28
     52e:	08 95       	ret

00000530 <UnityPrintNumberByStyle>:
     530:	cf 93       	push	r28
     532:	df 93       	push	r29
     534:	00 d0       	rcall	.+0      	; 0x536 <UnityPrintNumberByStyle+0x6>
     536:	00 d0       	rcall	.+0      	; 0x538 <UnityPrintNumberByStyle+0x8>
     538:	cd b7       	in	r28, 0x3d	; 61
     53a:	de b7       	in	r29, 0x3e	; 62
     53c:	69 83       	std	Y+1, r22	; 0x01
     53e:	7a 83       	std	Y+2, r23	; 0x02
     540:	8b 83       	std	Y+3, r24	; 0x03
     542:	9c 83       	std	Y+4, r25	; 0x04
     544:	5e 83       	std	Y+6, r21	; 0x06
     546:	4d 83       	std	Y+5, r20	; 0x05
     548:	8d 81       	ldd	r24, Y+5	; 0x05
     54a:	9e 81       	ldd	r25, Y+6	; 0x06
     54c:	80 71       	andi	r24, 0x10	; 16
     54e:	99 27       	eor	r25, r25
     550:	00 97       	sbiw	r24, 0x00	; 0
     552:	49 f0       	breq	.+18     	; 0x566 <UnityPrintNumberByStyle+0x36>
     554:	89 81       	ldd	r24, Y+1	; 0x01
     556:	9a 81       	ldd	r25, Y+2	; 0x02
     558:	ab 81       	ldd	r26, Y+3	; 0x03
     55a:	bc 81       	ldd	r27, Y+4	; 0x04
     55c:	bc 01       	movw	r22, r24
     55e:	cd 01       	movw	r24, r26
     560:	0e 94 ea 02 	call	0x5d4	; 0x5d4 <UnityPrintNumber>
     564:	2e c0       	rjmp	.+92     	; 0x5c2 <UnityPrintNumberByStyle+0x92>
     566:	8d 81       	ldd	r24, Y+5	; 0x05
     568:	9e 81       	ldd	r25, Y+6	; 0x06
     56a:	80 72       	andi	r24, 0x20	; 32
     56c:	99 27       	eor	r25, r25
     56e:	00 97       	sbiw	r24, 0x00	; 0
     570:	49 f0       	breq	.+18     	; 0x584 <UnityPrintNumberByStyle+0x54>
     572:	89 81       	ldd	r24, Y+1	; 0x01
     574:	9a 81       	ldd	r25, Y+2	; 0x02
     576:	ab 81       	ldd	r26, Y+3	; 0x03
     578:	bc 81       	ldd	r27, Y+4	; 0x04
     57a:	bc 01       	movw	r22, r24
     57c:	cd 01       	movw	r24, r26
     57e:	0e 94 2f 03 	call	0x65e	; 0x65e <UnityPrintNumberUnsigned>
     582:	1f c0       	rjmp	.+62     	; 0x5c2 <UnityPrintNumberByStyle+0x92>
     584:	80 91 2a 04 	lds	r24, 0x042A
     588:	90 91 2b 04 	lds	r25, 0x042B
     58c:	bc 01       	movw	r22, r24
     58e:	80 e3       	ldi	r24, 0x30	; 48
     590:	90 e0       	ldi	r25, 0x00	; 0
     592:	0e 94 28 1e 	call	0x3c50	; 0x3c50 <fputc>
     596:	80 91 2a 04 	lds	r24, 0x042A
     59a:	90 91 2b 04 	lds	r25, 0x042B
     59e:	bc 01       	movw	r22, r24
     5a0:	88 e7       	ldi	r24, 0x78	; 120
     5a2:	90 e0       	ldi	r25, 0x00	; 0
     5a4:	0e 94 28 1e 	call	0x3c50	; 0x3c50 <fputc>
     5a8:	8d 81       	ldd	r24, Y+5	; 0x05
     5aa:	8f 70       	andi	r24, 0x0F	; 15
     5ac:	88 0f       	add	r24, r24
     5ae:	28 2f       	mov	r18, r24
     5b0:	89 81       	ldd	r24, Y+1	; 0x01
     5b2:	9a 81       	ldd	r25, Y+2	; 0x02
     5b4:	ab 81       	ldd	r26, Y+3	; 0x03
     5b6:	bc 81       	ldd	r27, Y+4	; 0x04
     5b8:	42 2f       	mov	r20, r18
     5ba:	bc 01       	movw	r22, r24
     5bc:	cd 01       	movw	r24, r26
     5be:	0e 94 bd 03 	call	0x77a	; 0x77a <UnityPrintNumberHex>
     5c2:	26 96       	adiw	r28, 0x06	; 6
     5c4:	0f b6       	in	r0, 0x3f	; 63
     5c6:	f8 94       	cli
     5c8:	de bf       	out	0x3e, r29	; 62
     5ca:	0f be       	out	0x3f, r0	; 63
     5cc:	cd bf       	out	0x3d, r28	; 61
     5ce:	df 91       	pop	r29
     5d0:	cf 91       	pop	r28
     5d2:	08 95       	ret

000005d4 <UnityPrintNumber>:
     5d4:	cf 93       	push	r28
     5d6:	df 93       	push	r29
     5d8:	cd b7       	in	r28, 0x3d	; 61
     5da:	de b7       	in	r29, 0x3e	; 62
     5dc:	28 97       	sbiw	r28, 0x08	; 8
     5de:	0f b6       	in	r0, 0x3f	; 63
     5e0:	f8 94       	cli
     5e2:	de bf       	out	0x3e, r29	; 62
     5e4:	0f be       	out	0x3f, r0	; 63
     5e6:	cd bf       	out	0x3d, r28	; 61
     5e8:	6d 83       	std	Y+5, r22	; 0x05
     5ea:	7e 83       	std	Y+6, r23	; 0x06
     5ec:	8f 83       	std	Y+7, r24	; 0x07
     5ee:	98 87       	std	Y+8, r25	; 0x08
     5f0:	8d 81       	ldd	r24, Y+5	; 0x05
     5f2:	9e 81       	ldd	r25, Y+6	; 0x06
     5f4:	af 81       	ldd	r26, Y+7	; 0x07
     5f6:	b8 85       	ldd	r27, Y+8	; 0x08
     5f8:	89 83       	std	Y+1, r24	; 0x01
     5fa:	9a 83       	std	Y+2, r25	; 0x02
     5fc:	ab 83       	std	Y+3, r26	; 0x03
     5fe:	bc 83       	std	Y+4, r27	; 0x04
     600:	8d 81       	ldd	r24, Y+5	; 0x05
     602:	9e 81       	ldd	r25, Y+6	; 0x06
     604:	af 81       	ldd	r26, Y+7	; 0x07
     606:	b8 85       	ldd	r27, Y+8	; 0x08
     608:	bb 23       	and	r27, r27
     60a:	c4 f4       	brge	.+48     	; 0x63c <UnityPrintNumber+0x68>
     60c:	80 91 2a 04 	lds	r24, 0x042A
     610:	90 91 2b 04 	lds	r25, 0x042B
     614:	bc 01       	movw	r22, r24
     616:	8d e2       	ldi	r24, 0x2D	; 45
     618:	90 e0       	ldi	r25, 0x00	; 0
     61a:	0e 94 28 1e 	call	0x3c50	; 0x3c50 <fputc>
     61e:	8d 81       	ldd	r24, Y+5	; 0x05
     620:	9e 81       	ldd	r25, Y+6	; 0x06
     622:	af 81       	ldd	r26, Y+7	; 0x07
     624:	b8 85       	ldd	r27, Y+8	; 0x08
     626:	b0 95       	com	r27
     628:	a0 95       	com	r26
     62a:	90 95       	com	r25
     62c:	81 95       	neg	r24
     62e:	9f 4f       	sbci	r25, 0xFF	; 255
     630:	af 4f       	sbci	r26, 0xFF	; 255
     632:	bf 4f       	sbci	r27, 0xFF	; 255
     634:	89 83       	std	Y+1, r24	; 0x01
     636:	9a 83       	std	Y+2, r25	; 0x02
     638:	ab 83       	std	Y+3, r26	; 0x03
     63a:	bc 83       	std	Y+4, r27	; 0x04
     63c:	89 81       	ldd	r24, Y+1	; 0x01
     63e:	9a 81       	ldd	r25, Y+2	; 0x02
     640:	ab 81       	ldd	r26, Y+3	; 0x03
     642:	bc 81       	ldd	r27, Y+4	; 0x04
     644:	bc 01       	movw	r22, r24
     646:	cd 01       	movw	r24, r26
     648:	0e 94 2f 03 	call	0x65e	; 0x65e <UnityPrintNumberUnsigned>
     64c:	28 96       	adiw	r28, 0x08	; 8
     64e:	0f b6       	in	r0, 0x3f	; 63
     650:	f8 94       	cli
     652:	de bf       	out	0x3e, r29	; 62
     654:	0f be       	out	0x3f, r0	; 63
     656:	cd bf       	out	0x3d, r28	; 61
     658:	df 91       	pop	r29
     65a:	cf 91       	pop	r28
     65c:	08 95       	ret

0000065e <UnityPrintNumberUnsigned>:
     65e:	0f 93       	push	r16
     660:	1f 93       	push	r17
     662:	cf 93       	push	r28
     664:	df 93       	push	r29
     666:	cd b7       	in	r28, 0x3d	; 61
     668:	de b7       	in	r29, 0x3e	; 62
     66a:	68 97       	sbiw	r28, 0x18	; 24
     66c:	0f b6       	in	r0, 0x3f	; 63
     66e:	f8 94       	cli
     670:	de bf       	out	0x3e, r29	; 62
     672:	0f be       	out	0x3f, r0	; 63
     674:	cd bf       	out	0x3d, r28	; 61
     676:	6d 83       	std	Y+5, r22	; 0x05
     678:	7e 83       	std	Y+6, r23	; 0x06
     67a:	8f 83       	std	Y+7, r24	; 0x07
     67c:	98 87       	std	Y+8, r25	; 0x08
     67e:	81 e0       	ldi	r24, 0x01	; 1
     680:	90 e0       	ldi	r25, 0x00	; 0
     682:	a0 e0       	ldi	r26, 0x00	; 0
     684:	b0 e0       	ldi	r27, 0x00	; 0
     686:	89 83       	std	Y+1, r24	; 0x01
     688:	9a 83       	std	Y+2, r25	; 0x02
     68a:	ab 83       	std	Y+3, r26	; 0x03
     68c:	bc 83       	std	Y+4, r27	; 0x04
     68e:	1a c0       	rjmp	.+52     	; 0x6c4 <UnityPrintNumberUnsigned+0x66>
     690:	89 81       	ldd	r24, Y+1	; 0x01
     692:	9a 81       	ldd	r25, Y+2	; 0x02
     694:	ab 81       	ldd	r26, Y+3	; 0x03
     696:	bc 81       	ldd	r27, Y+4	; 0x04
     698:	88 0f       	add	r24, r24
     69a:	99 1f       	adc	r25, r25
     69c:	aa 1f       	adc	r26, r26
     69e:	bb 1f       	adc	r27, r27
     6a0:	9c 01       	movw	r18, r24
     6a2:	ad 01       	movw	r20, r26
     6a4:	22 0f       	add	r18, r18
     6a6:	33 1f       	adc	r19, r19
     6a8:	44 1f       	adc	r20, r20
     6aa:	55 1f       	adc	r21, r21
     6ac:	22 0f       	add	r18, r18
     6ae:	33 1f       	adc	r19, r19
     6b0:	44 1f       	adc	r20, r20
     6b2:	55 1f       	adc	r21, r21
     6b4:	82 0f       	add	r24, r18
     6b6:	93 1f       	adc	r25, r19
     6b8:	a4 1f       	adc	r26, r20
     6ba:	b5 1f       	adc	r27, r21
     6bc:	89 83       	std	Y+1, r24	; 0x01
     6be:	9a 83       	std	Y+2, r25	; 0x02
     6c0:	ab 83       	std	Y+3, r26	; 0x03
     6c2:	bc 83       	std	Y+4, r27	; 0x04
     6c4:	8d 81       	ldd	r24, Y+5	; 0x05
     6c6:	9e 81       	ldd	r25, Y+6	; 0x06
     6c8:	af 81       	ldd	r26, Y+7	; 0x07
     6ca:	b8 85       	ldd	r27, Y+8	; 0x08
     6cc:	29 81       	ldd	r18, Y+1	; 0x01
     6ce:	3a 81       	ldd	r19, Y+2	; 0x02
     6d0:	4b 81       	ldd	r20, Y+3	; 0x03
     6d2:	5c 81       	ldd	r21, Y+4	; 0x04
     6d4:	bc 01       	movw	r22, r24
     6d6:	cd 01       	movw	r24, r26
     6d8:	0e 94 7f 1b 	call	0x36fe	; 0x36fe <__udivmodsi4>
     6dc:	da 01       	movw	r26, r20
     6de:	c9 01       	movw	r24, r18
     6e0:	8a 30       	cpi	r24, 0x0A	; 10
     6e2:	91 05       	cpc	r25, r1
     6e4:	a1 05       	cpc	r26, r1
     6e6:	b1 05       	cpc	r27, r1
     6e8:	98 f6       	brcc	.-90     	; 0x690 <UnityPrintNumberUnsigned+0x32>
     6ea:	00 91 2a 04 	lds	r16, 0x042A
     6ee:	10 91 2b 04 	lds	r17, 0x042B
     6f2:	8d 81       	ldd	r24, Y+5	; 0x05
     6f4:	9e 81       	ldd	r25, Y+6	; 0x06
     6f6:	af 81       	ldd	r26, Y+7	; 0x07
     6f8:	b8 85       	ldd	r27, Y+8	; 0x08
     6fa:	29 81       	ldd	r18, Y+1	; 0x01
     6fc:	3a 81       	ldd	r19, Y+2	; 0x02
     6fe:	4b 81       	ldd	r20, Y+3	; 0x03
     700:	5c 81       	ldd	r21, Y+4	; 0x04
     702:	bc 01       	movw	r22, r24
     704:	cd 01       	movw	r24, r26
     706:	0e 94 7f 1b 	call	0x36fe	; 0x36fe <__udivmodsi4>
     70a:	da 01       	movw	r26, r20
     70c:	c9 01       	movw	r24, r18
     70e:	2a e0       	ldi	r18, 0x0A	; 10
     710:	30 e0       	ldi	r19, 0x00	; 0
     712:	40 e0       	ldi	r20, 0x00	; 0
     714:	50 e0       	ldi	r21, 0x00	; 0
     716:	bc 01       	movw	r22, r24
     718:	cd 01       	movw	r24, r26
     71a:	0e 94 7f 1b 	call	0x36fe	; 0x36fe <__udivmodsi4>
     71e:	dc 01       	movw	r26, r24
     720:	cb 01       	movw	r24, r22
     722:	80 5d       	subi	r24, 0xD0	; 208
     724:	99 27       	eor	r25, r25
     726:	87 fd       	sbrc	r24, 7
     728:	90 95       	com	r25
     72a:	b8 01       	movw	r22, r16
     72c:	0e 94 28 1e 	call	0x3c50	; 0x3c50 <fputc>
     730:	89 81       	ldd	r24, Y+1	; 0x01
     732:	9a 81       	ldd	r25, Y+2	; 0x02
     734:	ab 81       	ldd	r26, Y+3	; 0x03
     736:	bc 81       	ldd	r27, Y+4	; 0x04
     738:	2a e0       	ldi	r18, 0x0A	; 10
     73a:	30 e0       	ldi	r19, 0x00	; 0
     73c:	40 e0       	ldi	r20, 0x00	; 0
     73e:	50 e0       	ldi	r21, 0x00	; 0
     740:	bc 01       	movw	r22, r24
     742:	cd 01       	movw	r24, r26
     744:	0e 94 7f 1b 	call	0x36fe	; 0x36fe <__udivmodsi4>
     748:	da 01       	movw	r26, r20
     74a:	c9 01       	movw	r24, r18
     74c:	89 83       	std	Y+1, r24	; 0x01
     74e:	9a 83       	std	Y+2, r25	; 0x02
     750:	ab 83       	std	Y+3, r26	; 0x03
     752:	bc 83       	std	Y+4, r27	; 0x04
     754:	89 81       	ldd	r24, Y+1	; 0x01
     756:	9a 81       	ldd	r25, Y+2	; 0x02
     758:	ab 81       	ldd	r26, Y+3	; 0x03
     75a:	bc 81       	ldd	r27, Y+4	; 0x04
     75c:	00 97       	sbiw	r24, 0x00	; 0
     75e:	a1 05       	cpc	r26, r1
     760:	b1 05       	cpc	r27, r1
     762:	19 f6       	brne	.-122    	; 0x6ea <UnityPrintNumberUnsigned+0x8c>
     764:	68 96       	adiw	r28, 0x18	; 24
     766:	0f b6       	in	r0, 0x3f	; 63
     768:	f8 94       	cli
     76a:	de bf       	out	0x3e, r29	; 62
     76c:	0f be       	out	0x3f, r0	; 63
     76e:	cd bf       	out	0x3d, r28	; 61
     770:	df 91       	pop	r29
     772:	cf 91       	pop	r28
     774:	1f 91       	pop	r17
     776:	0f 91       	pop	r16
     778:	08 95       	ret

0000077a <UnityPrintNumberHex>:
     77a:	cf 93       	push	r28
     77c:	df 93       	push	r29
     77e:	cd b7       	in	r28, 0x3d	; 61
     780:	de b7       	in	r29, 0x3e	; 62
     782:	28 97       	sbiw	r28, 0x08	; 8
     784:	0f b6       	in	r0, 0x3f	; 63
     786:	f8 94       	cli
     788:	de bf       	out	0x3e, r29	; 62
     78a:	0f be       	out	0x3f, r0	; 63
     78c:	cd bf       	out	0x3d, r28	; 61
     78e:	6c 83       	std	Y+4, r22	; 0x04
     790:	7d 83       	std	Y+5, r23	; 0x05
     792:	8e 83       	std	Y+6, r24	; 0x06
     794:	9f 83       	std	Y+7, r25	; 0x07
     796:	48 87       	std	Y+8, r20	; 0x08
     798:	88 85       	ldd	r24, Y+8	; 0x08
     79a:	89 83       	std	Y+1, r24	; 0x01
     79c:	89 81       	ldd	r24, Y+1	; 0x01
     79e:	89 30       	cpi	r24, 0x09	; 9
     7a0:	18 f0       	brcs	.+6      	; 0x7a8 <UnityPrintNumberHex+0x2e>
     7a2:	88 e0       	ldi	r24, 0x08	; 8
     7a4:	89 83       	std	Y+1, r24	; 0x01
     7a6:	3b c0       	rjmp	.+118    	; 0x81e <UnityPrintNumberHex+0xa4>
     7a8:	3a c0       	rjmp	.+116    	; 0x81e <UnityPrintNumberHex+0xa4>
     7aa:	89 81       	ldd	r24, Y+1	; 0x01
     7ac:	81 50       	subi	r24, 0x01	; 1
     7ae:	89 83       	std	Y+1, r24	; 0x01
     7b0:	89 81       	ldd	r24, Y+1	; 0x01
     7b2:	99 27       	eor	r25, r25
     7b4:	87 fd       	sbrc	r24, 7
     7b6:	90 95       	com	r25
     7b8:	9c 01       	movw	r18, r24
     7ba:	22 0f       	add	r18, r18
     7bc:	33 1f       	adc	r19, r19
     7be:	22 0f       	add	r18, r18
     7c0:	33 1f       	adc	r19, r19
     7c2:	8c 81       	ldd	r24, Y+4	; 0x04
     7c4:	9d 81       	ldd	r25, Y+5	; 0x05
     7c6:	ae 81       	ldd	r26, Y+6	; 0x06
     7c8:	bf 81       	ldd	r27, Y+7	; 0x07
     7ca:	02 2e       	mov	r0, r18
     7cc:	04 c0       	rjmp	.+8      	; 0x7d6 <UnityPrintNumberHex+0x5c>
     7ce:	b6 95       	lsr	r27
     7d0:	a7 95       	ror	r26
     7d2:	97 95       	ror	r25
     7d4:	87 95       	ror	r24
     7d6:	0a 94       	dec	r0
     7d8:	d2 f7       	brpl	.-12     	; 0x7ce <UnityPrintNumberHex+0x54>
     7da:	8f 70       	andi	r24, 0x0F	; 15
     7dc:	99 27       	eor	r25, r25
     7de:	9b 83       	std	Y+3, r25	; 0x03
     7e0:	8a 83       	std	Y+2, r24	; 0x02
     7e2:	8a 81       	ldd	r24, Y+2	; 0x02
     7e4:	9b 81       	ldd	r25, Y+3	; 0x03
     7e6:	8a 30       	cpi	r24, 0x0A	; 10
     7e8:	91 05       	cpc	r25, r1
     7ea:	6c f4       	brge	.+26     	; 0x806 <UnityPrintNumberHex+0x8c>
     7ec:	20 91 2a 04 	lds	r18, 0x042A
     7f0:	30 91 2b 04 	lds	r19, 0x042B
     7f4:	8a 81       	ldd	r24, Y+2	; 0x02
     7f6:	80 5d       	subi	r24, 0xD0	; 208
     7f8:	99 27       	eor	r25, r25
     7fa:	87 fd       	sbrc	r24, 7
     7fc:	90 95       	com	r25
     7fe:	b9 01       	movw	r22, r18
     800:	0e 94 28 1e 	call	0x3c50	; 0x3c50 <fputc>
     804:	0c c0       	rjmp	.+24     	; 0x81e <UnityPrintNumberHex+0xa4>
     806:	20 91 2a 04 	lds	r18, 0x042A
     80a:	30 91 2b 04 	lds	r19, 0x042B
     80e:	8a 81       	ldd	r24, Y+2	; 0x02
     810:	89 5c       	subi	r24, 0xC9	; 201
     812:	99 27       	eor	r25, r25
     814:	87 fd       	sbrc	r24, 7
     816:	90 95       	com	r25
     818:	b9 01       	movw	r22, r18
     81a:	0e 94 28 1e 	call	0x3c50	; 0x3c50 <fputc>
     81e:	89 81       	ldd	r24, Y+1	; 0x01
     820:	18 16       	cp	r1, r24
     822:	1c f2       	brlt	.-122    	; 0x7aa <UnityPrintNumberHex+0x30>
     824:	28 96       	adiw	r28, 0x08	; 8
     826:	0f b6       	in	r0, 0x3f	; 63
     828:	f8 94       	cli
     82a:	de bf       	out	0x3e, r29	; 62
     82c:	0f be       	out	0x3f, r0	; 63
     82e:	cd bf       	out	0x3d, r28	; 61
     830:	df 91       	pop	r29
     832:	cf 91       	pop	r28
     834:	08 95       	ret

00000836 <UnityPrintMask>:
     836:	cf 93       	push	r28
     838:	df 93       	push	r29
     83a:	cd b7       	in	r28, 0x3d	; 61
     83c:	de b7       	in	r29, 0x3e	; 62
     83e:	60 97       	sbiw	r28, 0x10	; 16
     840:	0f b6       	in	r0, 0x3f	; 63
     842:	f8 94       	cli
     844:	de bf       	out	0x3e, r29	; 62
     846:	0f be       	out	0x3f, r0	; 63
     848:	cd bf       	out	0x3d, r28	; 61
     84a:	69 87       	std	Y+9, r22	; 0x09
     84c:	7a 87       	std	Y+10, r23	; 0x0a
     84e:	8b 87       	std	Y+11, r24	; 0x0b
     850:	9c 87       	std	Y+12, r25	; 0x0c
     852:	2d 87       	std	Y+13, r18	; 0x0d
     854:	3e 87       	std	Y+14, r19	; 0x0e
     856:	4f 87       	std	Y+15, r20	; 0x0f
     858:	58 8b       	std	Y+16, r21	; 0x10
     85a:	80 e0       	ldi	r24, 0x00	; 0
     85c:	90 e8       	ldi	r25, 0x80	; 128
     85e:	a0 e0       	ldi	r26, 0x00	; 0
     860:	b0 e0       	ldi	r27, 0x00	; 0
     862:	89 83       	std	Y+1, r24	; 0x01
     864:	9a 83       	std	Y+2, r25	; 0x02
     866:	ab 83       	std	Y+3, r26	; 0x03
     868:	bc 83       	std	Y+4, r27	; 0x04
     86a:	1d 82       	std	Y+5, r1	; 0x05
     86c:	1e 82       	std	Y+6, r1	; 0x06
     86e:	1f 82       	std	Y+7, r1	; 0x07
     870:	18 86       	std	Y+8, r1	; 0x08
     872:	54 c0       	rjmp	.+168    	; 0x91c <UnityPrintMask+0xe6>
     874:	29 81       	ldd	r18, Y+1	; 0x01
     876:	3a 81       	ldd	r19, Y+2	; 0x02
     878:	4b 81       	ldd	r20, Y+3	; 0x03
     87a:	5c 81       	ldd	r21, Y+4	; 0x04
     87c:	89 85       	ldd	r24, Y+9	; 0x09
     87e:	9a 85       	ldd	r25, Y+10	; 0x0a
     880:	ab 85       	ldd	r26, Y+11	; 0x0b
     882:	bc 85       	ldd	r27, Y+12	; 0x0c
     884:	82 23       	and	r24, r18
     886:	93 23       	and	r25, r19
     888:	a4 23       	and	r26, r20
     88a:	b5 23       	and	r27, r21
     88c:	00 97       	sbiw	r24, 0x00	; 0
     88e:	a1 05       	cpc	r26, r1
     890:	b1 05       	cpc	r27, r1
     892:	21 f1       	breq	.+72     	; 0x8dc <UnityPrintMask+0xa6>
     894:	29 81       	ldd	r18, Y+1	; 0x01
     896:	3a 81       	ldd	r19, Y+2	; 0x02
     898:	4b 81       	ldd	r20, Y+3	; 0x03
     89a:	5c 81       	ldd	r21, Y+4	; 0x04
     89c:	8d 85       	ldd	r24, Y+13	; 0x0d
     89e:	9e 85       	ldd	r25, Y+14	; 0x0e
     8a0:	af 85       	ldd	r26, Y+15	; 0x0f
     8a2:	b8 89       	ldd	r27, Y+16	; 0x10
     8a4:	82 23       	and	r24, r18
     8a6:	93 23       	and	r25, r19
     8a8:	a4 23       	and	r26, r20
     8aa:	b5 23       	and	r27, r21
     8ac:	00 97       	sbiw	r24, 0x00	; 0
     8ae:	a1 05       	cpc	r26, r1
     8b0:	b1 05       	cpc	r27, r1
     8b2:	51 f0       	breq	.+20     	; 0x8c8 <UnityPrintMask+0x92>
     8b4:	80 91 2a 04 	lds	r24, 0x042A
     8b8:	90 91 2b 04 	lds	r25, 0x042B
     8bc:	bc 01       	movw	r22, r24
     8be:	81 e3       	ldi	r24, 0x31	; 49
     8c0:	90 e0       	ldi	r25, 0x00	; 0
     8c2:	0e 94 28 1e 	call	0x3c50	; 0x3c50 <fputc>
     8c6:	13 c0       	rjmp	.+38     	; 0x8ee <UnityPrintMask+0xb8>
     8c8:	80 91 2a 04 	lds	r24, 0x042A
     8cc:	90 91 2b 04 	lds	r25, 0x042B
     8d0:	bc 01       	movw	r22, r24
     8d2:	80 e3       	ldi	r24, 0x30	; 48
     8d4:	90 e0       	ldi	r25, 0x00	; 0
     8d6:	0e 94 28 1e 	call	0x3c50	; 0x3c50 <fputc>
     8da:	09 c0       	rjmp	.+18     	; 0x8ee <UnityPrintMask+0xb8>
     8dc:	80 91 2a 04 	lds	r24, 0x042A
     8e0:	90 91 2b 04 	lds	r25, 0x042B
     8e4:	bc 01       	movw	r22, r24
     8e6:	88 e5       	ldi	r24, 0x58	; 88
     8e8:	90 e0       	ldi	r25, 0x00	; 0
     8ea:	0e 94 28 1e 	call	0x3c50	; 0x3c50 <fputc>
     8ee:	89 81       	ldd	r24, Y+1	; 0x01
     8f0:	9a 81       	ldd	r25, Y+2	; 0x02
     8f2:	ab 81       	ldd	r26, Y+3	; 0x03
     8f4:	bc 81       	ldd	r27, Y+4	; 0x04
     8f6:	b6 95       	lsr	r27
     8f8:	a7 95       	ror	r26
     8fa:	97 95       	ror	r25
     8fc:	87 95       	ror	r24
     8fe:	89 83       	std	Y+1, r24	; 0x01
     900:	9a 83       	std	Y+2, r25	; 0x02
     902:	ab 83       	std	Y+3, r26	; 0x03
     904:	bc 83       	std	Y+4, r27	; 0x04
     906:	8d 81       	ldd	r24, Y+5	; 0x05
     908:	9e 81       	ldd	r25, Y+6	; 0x06
     90a:	af 81       	ldd	r26, Y+7	; 0x07
     90c:	b8 85       	ldd	r27, Y+8	; 0x08
     90e:	01 96       	adiw	r24, 0x01	; 1
     910:	a1 1d       	adc	r26, r1
     912:	b1 1d       	adc	r27, r1
     914:	8d 83       	std	Y+5, r24	; 0x05
     916:	9e 83       	std	Y+6, r25	; 0x06
     918:	af 83       	std	Y+7, r26	; 0x07
     91a:	b8 87       	std	Y+8, r27	; 0x08
     91c:	8d 81       	ldd	r24, Y+5	; 0x05
     91e:	9e 81       	ldd	r25, Y+6	; 0x06
     920:	af 81       	ldd	r26, Y+7	; 0x07
     922:	b8 85       	ldd	r27, Y+8	; 0x08
     924:	80 31       	cpi	r24, 0x10	; 16
     926:	91 05       	cpc	r25, r1
     928:	a1 05       	cpc	r26, r1
     92a:	b1 05       	cpc	r27, r1
     92c:	0c f4       	brge	.+2      	; 0x930 <UnityPrintMask+0xfa>
     92e:	a2 cf       	rjmp	.-188    	; 0x874 <UnityPrintMask+0x3e>
     930:	60 96       	adiw	r28, 0x10	; 16
     932:	0f b6       	in	r0, 0x3f	; 63
     934:	f8 94       	cli
     936:	de bf       	out	0x3e, r29	; 62
     938:	0f be       	out	0x3f, r0	; 63
     93a:	cd bf       	out	0x3d, r28	; 61
     93c:	df 91       	pop	r29
     93e:	cf 91       	pop	r28
     940:	08 95       	ret

00000942 <UnityPrintDecimalAndNumberWithLeadingZeros>:
     942:	0f 93       	push	r16
     944:	1f 93       	push	r17
     946:	cf 93       	push	r28
     948:	df 93       	push	r29
     94a:	cd b7       	in	r28, 0x3d	; 61
     94c:	de b7       	in	r29, 0x3e	; 62
     94e:	64 97       	sbiw	r28, 0x14	; 20
     950:	0f b6       	in	r0, 0x3f	; 63
     952:	f8 94       	cli
     954:	de bf       	out	0x3e, r29	; 62
     956:	0f be       	out	0x3f, r0	; 63
     958:	cd bf       	out	0x3d, r28	; 61
     95a:	69 83       	std	Y+1, r22	; 0x01
     95c:	7a 83       	std	Y+2, r23	; 0x02
     95e:	8b 83       	std	Y+3, r24	; 0x03
     960:	9c 83       	std	Y+4, r25	; 0x04
     962:	2d 83       	std	Y+5, r18	; 0x05
     964:	3e 83       	std	Y+6, r19	; 0x06
     966:	4f 83       	std	Y+7, r20	; 0x07
     968:	58 87       	std	Y+8, r21	; 0x08
     96a:	80 91 2a 04 	lds	r24, 0x042A
     96e:	90 91 2b 04 	lds	r25, 0x042B
     972:	bc 01       	movw	r22, r24
     974:	8e e2       	ldi	r24, 0x2E	; 46
     976:	90 e0       	ldi	r25, 0x00	; 0
     978:	0e 94 28 1e 	call	0x3c50	; 0x3c50 <fputc>
     97c:	43 c0       	rjmp	.+134    	; 0xa04 <UnityPrintDecimalAndNumberWithLeadingZeros+0xc2>
     97e:	00 91 2a 04 	lds	r16, 0x042A
     982:	10 91 2b 04 	lds	r17, 0x042B
     986:	89 81       	ldd	r24, Y+1	; 0x01
     988:	9a 81       	ldd	r25, Y+2	; 0x02
     98a:	ab 81       	ldd	r26, Y+3	; 0x03
     98c:	bc 81       	ldd	r27, Y+4	; 0x04
     98e:	2d 81       	ldd	r18, Y+5	; 0x05
     990:	3e 81       	ldd	r19, Y+6	; 0x06
     992:	4f 81       	ldd	r20, Y+7	; 0x07
     994:	58 85       	ldd	r21, Y+8	; 0x08
     996:	bc 01       	movw	r22, r24
     998:	cd 01       	movw	r24, r26
     99a:	0e 94 a1 1b 	call	0x3742	; 0x3742 <__divmodsi4>
     99e:	da 01       	movw	r26, r20
     9a0:	c9 01       	movw	r24, r18
     9a2:	c0 96       	adiw	r24, 0x30	; 48
     9a4:	b8 01       	movw	r22, r16
     9a6:	0e 94 28 1e 	call	0x3c50	; 0x3c50 <fputc>
     9aa:	89 81       	ldd	r24, Y+1	; 0x01
     9ac:	9a 81       	ldd	r25, Y+2	; 0x02
     9ae:	ab 81       	ldd	r26, Y+3	; 0x03
     9b0:	bc 81       	ldd	r27, Y+4	; 0x04
     9b2:	2d 81       	ldd	r18, Y+5	; 0x05
     9b4:	3e 81       	ldd	r19, Y+6	; 0x06
     9b6:	4f 81       	ldd	r20, Y+7	; 0x07
     9b8:	58 85       	ldd	r21, Y+8	; 0x08
     9ba:	bc 01       	movw	r22, r24
     9bc:	cd 01       	movw	r24, r26
     9be:	0e 94 a1 1b 	call	0x3742	; 0x3742 <__divmodsi4>
     9c2:	dc 01       	movw	r26, r24
     9c4:	cb 01       	movw	r24, r22
     9c6:	89 83       	std	Y+1, r24	; 0x01
     9c8:	9a 83       	std	Y+2, r25	; 0x02
     9ca:	ab 83       	std	Y+3, r26	; 0x03
     9cc:	bc 83       	std	Y+4, r27	; 0x04
     9ce:	8d 81       	ldd	r24, Y+5	; 0x05
     9d0:	9e 81       	ldd	r25, Y+6	; 0x06
     9d2:	af 81       	ldd	r26, Y+7	; 0x07
     9d4:	b8 85       	ldd	r27, Y+8	; 0x08
     9d6:	2a e0       	ldi	r18, 0x0A	; 10
     9d8:	30 e0       	ldi	r19, 0x00	; 0
     9da:	40 e0       	ldi	r20, 0x00	; 0
     9dc:	50 e0       	ldi	r21, 0x00	; 0
     9de:	bc 01       	movw	r22, r24
     9e0:	cd 01       	movw	r24, r26
     9e2:	0e 94 a1 1b 	call	0x3742	; 0x3742 <__divmodsi4>
     9e6:	da 01       	movw	r26, r20
     9e8:	c9 01       	movw	r24, r18
     9ea:	8d 83       	std	Y+5, r24	; 0x05
     9ec:	9e 83       	std	Y+6, r25	; 0x06
     9ee:	af 83       	std	Y+7, r26	; 0x07
     9f0:	b8 87       	std	Y+8, r27	; 0x08
     9f2:	89 81       	ldd	r24, Y+1	; 0x01
     9f4:	9a 81       	ldd	r25, Y+2	; 0x02
     9f6:	ab 81       	ldd	r26, Y+3	; 0x03
     9f8:	bc 81       	ldd	r27, Y+4	; 0x04
     9fa:	00 97       	sbiw	r24, 0x00	; 0
     9fc:	a1 05       	cpc	r26, r1
     9fe:	b1 05       	cpc	r27, r1
     a00:	09 f4       	brne	.+2      	; 0xa04 <UnityPrintDecimalAndNumberWithLeadingZeros+0xc2>
     a02:	0a c0       	rjmp	.+20     	; 0xa18 <UnityPrintDecimalAndNumberWithLeadingZeros+0xd6>
     a04:	8d 81       	ldd	r24, Y+5	; 0x05
     a06:	9e 81       	ldd	r25, Y+6	; 0x06
     a08:	af 81       	ldd	r26, Y+7	; 0x07
     a0a:	b8 85       	ldd	r27, Y+8	; 0x08
     a0c:	18 16       	cp	r1, r24
     a0e:	19 06       	cpc	r1, r25
     a10:	1a 06       	cpc	r1, r26
     a12:	1b 06       	cpc	r1, r27
     a14:	0c f4       	brge	.+2      	; 0xa18 <UnityPrintDecimalAndNumberWithLeadingZeros+0xd6>
     a16:	b3 cf       	rjmp	.-154    	; 0x97e <UnityPrintDecimalAndNumberWithLeadingZeros+0x3c>
     a18:	64 96       	adiw	r28, 0x14	; 20
     a1a:	0f b6       	in	r0, 0x3f	; 63
     a1c:	f8 94       	cli
     a1e:	de bf       	out	0x3e, r29	; 62
     a20:	0f be       	out	0x3f, r0	; 63
     a22:	cd bf       	out	0x3d, r28	; 61
     a24:	df 91       	pop	r29
     a26:	cf 91       	pop	r28
     a28:	1f 91       	pop	r17
     a2a:	0f 91       	pop	r16
     a2c:	08 95       	ret

00000a2e <UnityPrintFloat>:
     a2e:	cf 92       	push	r12
     a30:	df 92       	push	r13
     a32:	ef 92       	push	r14
     a34:	ff 92       	push	r15
     a36:	0f 93       	push	r16
     a38:	1f 93       	push	r17
     a3a:	cf 93       	push	r28
     a3c:	df 93       	push	r29
     a3e:	cd b7       	in	r28, 0x3d	; 61
     a40:	de b7       	in	r29, 0x3e	; 62
     a42:	ae 97       	sbiw	r28, 0x2e	; 46
     a44:	0f b6       	in	r0, 0x3f	; 63
     a46:	f8 94       	cli
     a48:	de bf       	out	0x3e, r29	; 62
     a4a:	0f be       	out	0x3f, r0	; 63
     a4c:	cd bf       	out	0x3d, r28	; 61
     a4e:	6f 8f       	std	Y+31, r22	; 0x1f
     a50:	78 a3       	std	Y+32, r23	; 0x20
     a52:	89 a3       	std	Y+33, r24	; 0x21
     a54:	9a a3       	std	Y+34, r25	; 0x22
     a56:	20 e0       	ldi	r18, 0x00	; 0
     a58:	30 e0       	ldi	r19, 0x00	; 0
     a5a:	a9 01       	movw	r20, r18
     a5c:	6f 8d       	ldd	r22, Y+31	; 0x1f
     a5e:	78 a1       	ldd	r23, Y+32	; 0x20
     a60:	89 a1       	ldd	r24, Y+33	; 0x21
     a62:	9a a1       	ldd	r25, Y+34	; 0x22
     a64:	0e 94 2b 1c 	call	0x3856	; 0x3856 <__cmpsf2>
     a68:	88 23       	and	r24, r24
     a6a:	9c f4       	brge	.+38     	; 0xa92 <UnityPrintFloat+0x64>
     a6c:	80 91 2a 04 	lds	r24, 0x042A
     a70:	90 91 2b 04 	lds	r25, 0x042B
     a74:	bc 01       	movw	r22, r24
     a76:	8d e2       	ldi	r24, 0x2D	; 45
     a78:	90 e0       	ldi	r25, 0x00	; 0
     a7a:	0e 94 28 1e 	call	0x3c50	; 0x3c50 <fputc>
     a7e:	8f 8d       	ldd	r24, Y+31	; 0x1f
     a80:	98 a1       	ldd	r25, Y+32	; 0x20
     a82:	a9 a1       	ldd	r26, Y+33	; 0x21
     a84:	ba a1       	ldd	r27, Y+34	; 0x22
     a86:	b0 58       	subi	r27, 0x80	; 128
     a88:	89 83       	std	Y+1, r24	; 0x01
     a8a:	9a 83       	std	Y+2, r25	; 0x02
     a8c:	ab 83       	std	Y+3, r26	; 0x03
     a8e:	bc 83       	std	Y+4, r27	; 0x04
     a90:	08 c0       	rjmp	.+16     	; 0xaa2 <UnityPrintFloat+0x74>
     a92:	8f 8d       	ldd	r24, Y+31	; 0x1f
     a94:	98 a1       	ldd	r25, Y+32	; 0x20
     a96:	a9 a1       	ldd	r26, Y+33	; 0x21
     a98:	ba a1       	ldd	r27, Y+34	; 0x22
     a9a:	89 83       	std	Y+1, r24	; 0x01
     a9c:	9a 83       	std	Y+2, r25	; 0x02
     a9e:	ab 83       	std	Y+3, r26	; 0x03
     aa0:	bc 83       	std	Y+4, r27	; 0x04
     aa2:	29 81       	ldd	r18, Y+1	; 0x01
     aa4:	3a 81       	ldd	r19, Y+2	; 0x02
     aa6:	4b 81       	ldd	r20, Y+3	; 0x03
     aa8:	5c 81       	ldd	r21, Y+4	; 0x04
     aaa:	69 81       	ldd	r22, Y+1	; 0x01
     aac:	7a 81       	ldd	r23, Y+2	; 0x02
     aae:	8b 81       	ldd	r24, Y+3	; 0x03
     ab0:	9c 81       	ldd	r25, Y+4	; 0x04
     ab2:	0e 94 2b 1c 	call	0x3856	; 0x3856 <__cmpsf2>
     ab6:	88 23       	and	r24, r24
     ab8:	29 f0       	breq	.+10     	; 0xac4 <UnityPrintFloat+0x96>
     aba:	87 ef       	ldi	r24, 0xF7	; 247
     abc:	92 e0       	ldi	r25, 0x02	; 2
     abe:	0e 94 54 01 	call	0x2a8	; 0x2a8 <UnityPrint>
     ac2:	91 c2       	rjmp	.+1314   	; 0xfe6 <UnityPrintFloat+0x5b8>
     ac4:	29 81       	ldd	r18, Y+1	; 0x01
     ac6:	3a 81       	ldd	r19, Y+2	; 0x02
     ac8:	4b 81       	ldd	r20, Y+3	; 0x03
     aca:	5c 81       	ldd	r21, Y+4	; 0x04
     acc:	69 81       	ldd	r22, Y+1	; 0x01
     ace:	7a 81       	ldd	r23, Y+2	; 0x02
     ad0:	8b 81       	ldd	r24, Y+3	; 0x03
     ad2:	9c 81       	ldd	r25, Y+4	; 0x04
     ad4:	0e 94 c6 1b 	call	0x378c	; 0x378c <__subsf3>
     ad8:	dc 01       	movw	r26, r24
     ada:	cb 01       	movw	r24, r22
     adc:	6c 01       	movw	r12, r24
     ade:	7d 01       	movw	r14, r26
     ae0:	29 81       	ldd	r18, Y+1	; 0x01
     ae2:	3a 81       	ldd	r19, Y+2	; 0x02
     ae4:	4b 81       	ldd	r20, Y+3	; 0x03
     ae6:	5c 81       	ldd	r21, Y+4	; 0x04
     ae8:	69 81       	ldd	r22, Y+1	; 0x01
     aea:	7a 81       	ldd	r23, Y+2	; 0x02
     aec:	8b 81       	ldd	r24, Y+3	; 0x03
     aee:	9c 81       	ldd	r25, Y+4	; 0x04
     af0:	0e 94 c6 1b 	call	0x378c	; 0x378c <__subsf3>
     af4:	dc 01       	movw	r26, r24
     af6:	cb 01       	movw	r24, r22
     af8:	9c 01       	movw	r18, r24
     afa:	ad 01       	movw	r20, r26
     afc:	c7 01       	movw	r24, r14
     afe:	b6 01       	movw	r22, r12
     b00:	0e 94 2b 1c 	call	0x3856	; 0x3856 <__cmpsf2>
     b04:	88 23       	and	r24, r24
     b06:	a9 f0       	breq	.+42     	; 0xb32 <UnityPrintFloat+0x104>
     b08:	29 81       	ldd	r18, Y+1	; 0x01
     b0a:	3a 81       	ldd	r19, Y+2	; 0x02
     b0c:	4b 81       	ldd	r20, Y+3	; 0x03
     b0e:	5c 81       	ldd	r21, Y+4	; 0x04
     b10:	69 81       	ldd	r22, Y+1	; 0x01
     b12:	7a 81       	ldd	r23, Y+2	; 0x02
     b14:	8b 81       	ldd	r24, Y+3	; 0x03
     b16:	9c 81       	ldd	r25, Y+4	; 0x04
     b18:	0e 94 2b 1c 	call	0x3856	; 0x3856 <__cmpsf2>
     b1c:	88 23       	and	r24, r24
     b1e:	49 f4       	brne	.+18     	; 0xb32 <UnityPrintFloat+0x104>
     b20:	43 e0       	ldi	r20, 0x03	; 3
     b22:	50 e0       	ldi	r21, 0x00	; 0
     b24:	60 e0       	ldi	r22, 0x00	; 0
     b26:	70 e0       	ldi	r23, 0x00	; 0
     b28:	8c ed       	ldi	r24, 0xDC	; 220
     b2a:	92 e0       	ldi	r25, 0x02	; 2
     b2c:	0e 94 e6 01 	call	0x3cc	; 0x3cc <UnityPrintLen>
     b30:	5a c2       	rjmp	.+1204   	; 0xfe6 <UnityPrintFloat+0x5b8>
     b32:	2d eb       	ldi	r18, 0xBD	; 189
     b34:	37 e3       	ldi	r19, 0x37	; 55
     b36:	46 e0       	ldi	r20, 0x06	; 6
     b38:	55 e3       	ldi	r21, 0x35	; 53
     b3a:	69 81       	ldd	r22, Y+1	; 0x01
     b3c:	7a 81       	ldd	r23, Y+2	; 0x02
     b3e:	8b 81       	ldd	r24, Y+3	; 0x03
     b40:	9c 81       	ldd	r25, Y+4	; 0x04
     b42:	0e 94 2b 1c 	call	0x3856	; 0x3856 <__cmpsf2>
     b46:	18 16       	cp	r1, r24
     b48:	84 f0       	brlt	.+32     	; 0xb6a <UnityPrintFloat+0x13c>
     b4a:	20 e0       	ldi	r18, 0x00	; 0
     b4c:	30 e0       	ldi	r19, 0x00	; 0
     b4e:	a9 01       	movw	r20, r18
     b50:	69 81       	ldd	r22, Y+1	; 0x01
     b52:	7a 81       	ldd	r23, Y+2	; 0x02
     b54:	8b 81       	ldd	r24, Y+3	; 0x03
     b56:	9c 81       	ldd	r25, Y+4	; 0x04
     b58:	0e 94 7a 1d 	call	0x3af4	; 0x3af4 <__gesf2>
     b5c:	18 16       	cp	r1, r24
     b5e:	2c f4       	brge	.+10     	; 0xb6a <UnityPrintFloat+0x13c>
     b60:	81 ec       	ldi	r24, 0xC1	; 193
     b62:	93 e0       	ldi	r25, 0x03	; 3
     b64:	0e 94 54 01 	call	0x2a8	; 0x2a8 <UnityPrint>
     b68:	3e c2       	rjmp	.+1148   	; 0xfe6 <UnityPrintFloat+0x5b8>
     b6a:	20 e0       	ldi	r18, 0x00	; 0
     b6c:	30 e0       	ldi	r19, 0x00	; 0
     b6e:	40 e8       	ldi	r20, 0x80	; 128
     b70:	5f e4       	ldi	r21, 0x4F	; 79
     b72:	69 81       	ldd	r22, Y+1	; 0x01
     b74:	7a 81       	ldd	r23, Y+2	; 0x02
     b76:	8b 81       	ldd	r24, Y+3	; 0x03
     b78:	9c 81       	ldd	r25, Y+4	; 0x04
     b7a:	0e 94 2b 1c 	call	0x3856	; 0x3856 <__cmpsf2>
     b7e:	88 23       	and	r24, r24
     b80:	0c f0       	brlt	.+2      	; 0xb84 <UnityPrintFloat+0x156>
     b82:	00 c1       	rjmp	.+512    	; 0xd84 <UnityPrintFloat+0x356>
     b84:	80 ea       	ldi	r24, 0xA0	; 160
     b86:	96 e8       	ldi	r25, 0x86	; 134
     b88:	a1 e0       	ldi	r26, 0x01	; 1
     b8a:	b0 e0       	ldi	r27, 0x00	; 0
     b8c:	8f 8b       	std	Y+23, r24	; 0x17
     b8e:	98 8f       	std	Y+24, r25	; 0x18
     b90:	a9 8f       	std	Y+25, r26	; 0x19
     b92:	ba 8f       	std	Y+26, r27	; 0x1a
     b94:	69 81       	ldd	r22, Y+1	; 0x01
     b96:	7a 81       	ldd	r23, Y+2	; 0x02
     b98:	8b 81       	ldd	r24, Y+3	; 0x03
     b9a:	9c 81       	ldd	r25, Y+4	; 0x04
     b9c:	0e 94 9c 1c 	call	0x3938	; 0x3938 <__fixunssfsi>
     ba0:	dc 01       	movw	r26, r24
     ba2:	cb 01       	movw	r24, r22
     ba4:	8d 83       	std	Y+5, r24	; 0x05
     ba6:	9e 83       	std	Y+6, r25	; 0x06
     ba8:	af 83       	std	Y+7, r26	; 0x07
     baa:	b8 87       	std	Y+8, r27	; 0x08
     bac:	6d 81       	ldd	r22, Y+5	; 0x05
     bae:	7e 81       	ldd	r23, Y+6	; 0x06
     bb0:	8f 81       	ldd	r24, Y+7	; 0x07
     bb2:	98 85       	ldd	r25, Y+8	; 0x08
     bb4:	0e 94 c8 1c 	call	0x3990	; 0x3990 <__floatunsisf>
     bb8:	dc 01       	movw	r26, r24
     bba:	cb 01       	movw	r24, r22
     bbc:	9c 01       	movw	r18, r24
     bbe:	ad 01       	movw	r20, r26
     bc0:	69 81       	ldd	r22, Y+1	; 0x01
     bc2:	7a 81       	ldd	r23, Y+2	; 0x02
     bc4:	8b 81       	ldd	r24, Y+3	; 0x03
     bc6:	9c 81       	ldd	r25, Y+4	; 0x04
     bc8:	0e 94 c6 1b 	call	0x378c	; 0x378c <__subsf3>
     bcc:	dc 01       	movw	r26, r24
     bce:	cb 01       	movw	r24, r22
     bd0:	20 e0       	ldi	r18, 0x00	; 0
     bd2:	34 e2       	ldi	r19, 0x24	; 36
     bd4:	44 e7       	ldi	r20, 0x74	; 116
     bd6:	59 e4       	ldi	r21, 0x49	; 73
     bd8:	bc 01       	movw	r22, r24
     bda:	cd 01       	movw	r24, r26
     bdc:	0e 94 7e 1d 	call	0x3afc	; 0x3afc <__mulsf3>
     be0:	dc 01       	movw	r26, r24
     be2:	cb 01       	movw	r24, r22
     be4:	20 e0       	ldi	r18, 0x00	; 0
     be6:	30 e0       	ldi	r19, 0x00	; 0
     be8:	40 e0       	ldi	r20, 0x00	; 0
     bea:	5f e3       	ldi	r21, 0x3F	; 63
     bec:	bc 01       	movw	r22, r24
     bee:	cd 01       	movw	r24, r26
     bf0:	0e 94 c7 1b 	call	0x378e	; 0x378e <__addsf3>
     bf4:	dc 01       	movw	r26, r24
     bf6:	cb 01       	movw	r24, r22
     bf8:	bc 01       	movw	r22, r24
     bfa:	cd 01       	movw	r24, r26
     bfc:	0e 94 97 1c 	call	0x392e	; 0x392e <__fixsfsi>
     c00:	dc 01       	movw	r26, r24
     c02:	cb 01       	movw	r24, r22
     c04:	89 87       	std	Y+9, r24	; 0x09
     c06:	9a 87       	std	Y+10, r25	; 0x0a
     c08:	ab 87       	std	Y+11, r26	; 0x0b
     c0a:	bc 87       	std	Y+12, r27	; 0x0c
     c0c:	69 85       	ldd	r22, Y+9	; 0x09
     c0e:	7a 85       	ldd	r23, Y+10	; 0x0a
     c10:	8b 85       	ldd	r24, Y+11	; 0x0b
     c12:	9c 85       	ldd	r25, Y+12	; 0x0c
     c14:	0e 94 ca 1c 	call	0x3994	; 0x3994 <__floatsisf>
     c18:	6b 01       	movw	r12, r22
     c1a:	7c 01       	movw	r14, r24
     c1c:	6d 81       	ldd	r22, Y+5	; 0x05
     c1e:	7e 81       	ldd	r23, Y+6	; 0x06
     c20:	8f 81       	ldd	r24, Y+7	; 0x07
     c22:	98 85       	ldd	r25, Y+8	; 0x08
     c24:	0e 94 c8 1c 	call	0x3990	; 0x3990 <__floatunsisf>
     c28:	dc 01       	movw	r26, r24
     c2a:	cb 01       	movw	r24, r22
     c2c:	9c 01       	movw	r18, r24
     c2e:	ad 01       	movw	r20, r26
     c30:	69 81       	ldd	r22, Y+1	; 0x01
     c32:	7a 81       	ldd	r23, Y+2	; 0x02
     c34:	8b 81       	ldd	r24, Y+3	; 0x03
     c36:	9c 81       	ldd	r25, Y+4	; 0x04
     c38:	0e 94 c6 1b 	call	0x378c	; 0x378c <__subsf3>
     c3c:	dc 01       	movw	r26, r24
     c3e:	cb 01       	movw	r24, r22
     c40:	20 e0       	ldi	r18, 0x00	; 0
     c42:	34 e2       	ldi	r19, 0x24	; 36
     c44:	44 e7       	ldi	r20, 0x74	; 116
     c46:	59 e4       	ldi	r21, 0x49	; 73
     c48:	bc 01       	movw	r22, r24
     c4a:	cd 01       	movw	r24, r26
     c4c:	0e 94 7e 1d 	call	0x3afc	; 0x3afc <__mulsf3>
     c50:	dc 01       	movw	r26, r24
     c52:	cb 01       	movw	r24, r22
     c54:	9c 01       	movw	r18, r24
     c56:	ad 01       	movw	r20, r26
     c58:	c7 01       	movw	r24, r14
     c5a:	b6 01       	movw	r22, r12
     c5c:	0e 94 7a 1d 	call	0x3af4	; 0x3af4 <__gesf2>
     c60:	18 16       	cp	r1, r24
     c62:	0c f0       	brlt	.+2      	; 0xc66 <UnityPrintFloat+0x238>
     c64:	60 c0       	rjmp	.+192    	; 0xd26 <UnityPrintFloat+0x2f8>
     c66:	6d 81       	ldd	r22, Y+5	; 0x05
     c68:	7e 81       	ldd	r23, Y+6	; 0x06
     c6a:	8f 81       	ldd	r24, Y+7	; 0x07
     c6c:	98 85       	ldd	r25, Y+8	; 0x08
     c6e:	0e 94 c8 1c 	call	0x3990	; 0x3990 <__floatunsisf>
     c72:	dc 01       	movw	r26, r24
     c74:	cb 01       	movw	r24, r22
     c76:	9c 01       	movw	r18, r24
     c78:	ad 01       	movw	r20, r26
     c7a:	69 81       	ldd	r22, Y+1	; 0x01
     c7c:	7a 81       	ldd	r23, Y+2	; 0x02
     c7e:	8b 81       	ldd	r24, Y+3	; 0x03
     c80:	9c 81       	ldd	r25, Y+4	; 0x04
     c82:	0e 94 c6 1b 	call	0x378c	; 0x378c <__subsf3>
     c86:	dc 01       	movw	r26, r24
     c88:	cb 01       	movw	r24, r22
     c8a:	20 e0       	ldi	r18, 0x00	; 0
     c8c:	34 e2       	ldi	r19, 0x24	; 36
     c8e:	44 e7       	ldi	r20, 0x74	; 116
     c90:	59 e4       	ldi	r21, 0x49	; 73
     c92:	bc 01       	movw	r22, r24
     c94:	cd 01       	movw	r24, r26
     c96:	0e 94 7e 1d 	call	0x3afc	; 0x3afc <__mulsf3>
     c9a:	dc 01       	movw	r26, r24
     c9c:	cb 01       	movw	r24, r22
     c9e:	6c 01       	movw	r12, r24
     ca0:	7d 01       	movw	r14, r26
     ca2:	89 85       	ldd	r24, Y+9	; 0x09
     ca4:	9a 85       	ldd	r25, Y+10	; 0x0a
     ca6:	ab 85       	ldd	r26, Y+11	; 0x0b
     ca8:	bc 85       	ldd	r27, Y+12	; 0x0c
     caa:	01 97       	sbiw	r24, 0x01	; 1
     cac:	a1 09       	sbc	r26, r1
     cae:	b1 09       	sbc	r27, r1
     cb0:	bc 01       	movw	r22, r24
     cb2:	cd 01       	movw	r24, r26
     cb4:	0e 94 ca 1c 	call	0x3994	; 0x3994 <__floatsisf>
     cb8:	dc 01       	movw	r26, r24
     cba:	cb 01       	movw	r24, r22
     cbc:	9c 01       	movw	r18, r24
     cbe:	ad 01       	movw	r20, r26
     cc0:	c7 01       	movw	r24, r14
     cc2:	b6 01       	movw	r22, r12
     cc4:	0e 94 c6 1b 	call	0x378c	; 0x378c <__subsf3>
     cc8:	dc 01       	movw	r26, r24
     cca:	cb 01       	movw	r24, r22
     ccc:	20 e0       	ldi	r18, 0x00	; 0
     cce:	30 e0       	ldi	r19, 0x00	; 0
     cd0:	40 e0       	ldi	r20, 0x00	; 0
     cd2:	5f e3       	ldi	r21, 0x3F	; 63
     cd4:	bc 01       	movw	r22, r24
     cd6:	cd 01       	movw	r24, r26
     cd8:	0e 94 2b 1c 	call	0x3856	; 0x3856 <__cmpsf2>
     cdc:	18 16       	cp	r1, r24
     cde:	1c f1       	brlt	.+70     	; 0xd26 <UnityPrintFloat+0x2f8>
     ce0:	89 85       	ldd	r24, Y+9	; 0x09
     ce2:	9a 85       	ldd	r25, Y+10	; 0x0a
     ce4:	ab 85       	ldd	r26, Y+11	; 0x0b
     ce6:	bc 85       	ldd	r27, Y+12	; 0x0c
     ce8:	81 70       	andi	r24, 0x01	; 1
     cea:	99 27       	eor	r25, r25
     cec:	aa 27       	eor	r26, r26
     cee:	bb 27       	eor	r27, r27
     cf0:	00 97       	sbiw	r24, 0x00	; 0
     cf2:	a1 05       	cpc	r26, r1
     cf4:	b1 05       	cpc	r27, r1
     cf6:	b9 f0       	breq	.+46     	; 0xd26 <UnityPrintFloat+0x2f8>
     cf8:	28 e7       	ldi	r18, 0x78	; 120
     cfa:	36 e8       	ldi	r19, 0x86	; 134
     cfc:	47 e0       	ldi	r20, 0x07	; 7
     cfe:	54 e6       	ldi	r21, 0x64	; 100
     d00:	69 81       	ldd	r22, Y+1	; 0x01
     d02:	7a 81       	ldd	r23, Y+2	; 0x02
     d04:	8b 81       	ldd	r24, Y+3	; 0x03
     d06:	9c 81       	ldd	r25, Y+4	; 0x04
     d08:	0e 94 2b 1c 	call	0x3856	; 0x3856 <__cmpsf2>
     d0c:	88 23       	and	r24, r24
     d0e:	5c f4       	brge	.+22     	; 0xd26 <UnityPrintFloat+0x2f8>
     d10:	89 85       	ldd	r24, Y+9	; 0x09
     d12:	9a 85       	ldd	r25, Y+10	; 0x0a
     d14:	ab 85       	ldd	r26, Y+11	; 0x0b
     d16:	bc 85       	ldd	r27, Y+12	; 0x0c
     d18:	01 97       	sbiw	r24, 0x01	; 1
     d1a:	a1 09       	sbc	r26, r1
     d1c:	b1 09       	sbc	r27, r1
     d1e:	89 87       	std	Y+9, r24	; 0x09
     d20:	9a 87       	std	Y+10, r25	; 0x0a
     d22:	ab 87       	std	Y+11, r26	; 0x0b
     d24:	bc 87       	std	Y+12, r27	; 0x0c
     d26:	89 85       	ldd	r24, Y+9	; 0x09
     d28:	9a 85       	ldd	r25, Y+10	; 0x0a
     d2a:	ab 85       	ldd	r26, Y+11	; 0x0b
     d2c:	bc 85       	ldd	r27, Y+12	; 0x0c
     d2e:	80 34       	cpi	r24, 0x40	; 64
     d30:	22 e4       	ldi	r18, 0x42	; 66
     d32:	92 07       	cpc	r25, r18
     d34:	2f e0       	ldi	r18, 0x0F	; 15
     d36:	a2 07       	cpc	r26, r18
     d38:	b1 05       	cpc	r27, r1
     d3a:	79 f4       	brne	.+30     	; 0xd5a <UnityPrintFloat+0x32c>
     d3c:	19 86       	std	Y+9, r1	; 0x09
     d3e:	1a 86       	std	Y+10, r1	; 0x0a
     d40:	1b 86       	std	Y+11, r1	; 0x0b
     d42:	1c 86       	std	Y+12, r1	; 0x0c
     d44:	8d 81       	ldd	r24, Y+5	; 0x05
     d46:	9e 81       	ldd	r25, Y+6	; 0x06
     d48:	af 81       	ldd	r26, Y+7	; 0x07
     d4a:	b8 85       	ldd	r27, Y+8	; 0x08
     d4c:	01 96       	adiw	r24, 0x01	; 1
     d4e:	a1 1d       	adc	r26, r1
     d50:	b1 1d       	adc	r27, r1
     d52:	8d 83       	std	Y+5, r24	; 0x05
     d54:	9e 83       	std	Y+6, r25	; 0x06
     d56:	af 83       	std	Y+7, r26	; 0x07
     d58:	b8 87       	std	Y+8, r27	; 0x08
     d5a:	8d 81       	ldd	r24, Y+5	; 0x05
     d5c:	9e 81       	ldd	r25, Y+6	; 0x06
     d5e:	af 81       	ldd	r26, Y+7	; 0x07
     d60:	b8 85       	ldd	r27, Y+8	; 0x08
     d62:	bc 01       	movw	r22, r24
     d64:	cd 01       	movw	r24, r26
     d66:	0e 94 2f 03 	call	0x65e	; 0x65e <UnityPrintNumberUnsigned>
     d6a:	2f 89       	ldd	r18, Y+23	; 0x17
     d6c:	38 8d       	ldd	r19, Y+24	; 0x18
     d6e:	49 8d       	ldd	r20, Y+25	; 0x19
     d70:	5a 8d       	ldd	r21, Y+26	; 0x1a
     d72:	89 85       	ldd	r24, Y+9	; 0x09
     d74:	9a 85       	ldd	r25, Y+10	; 0x0a
     d76:	ab 85       	ldd	r26, Y+11	; 0x0b
     d78:	bc 85       	ldd	r27, Y+12	; 0x0c
     d7a:	bc 01       	movw	r22, r24
     d7c:	cd 01       	movw	r24, r26
     d7e:	0e 94 a1 04 	call	0x942	; 0x942 <UnityPrintDecimalAndNumberWithLeadingZeros>
     d82:	31 c1       	rjmp	.+610    	; 0xfe6 <UnityPrintFloat+0x5b8>
     d84:	80 e0       	ldi	r24, 0x00	; 0
     d86:	91 ee       	ldi	r25, 0xE1	; 225
     d88:	a5 ef       	ldi	r26, 0xF5	; 245
     d8a:	b5 e0       	ldi	r27, 0x05	; 5
     d8c:	8b 8f       	std	Y+27, r24	; 0x1b
     d8e:	9c 8f       	std	Y+28, r25	; 0x1c
     d90:	ad 8f       	std	Y+29, r26	; 0x1d
     d92:	be 8f       	std	Y+30, r27	; 0x1e
     d94:	80 e0       	ldi	r24, 0x00	; 0
     d96:	90 e0       	ldi	r25, 0x00	; 0
     d98:	a0 e2       	ldi	r26, 0x20	; 32
     d9a:	b1 e4       	ldi	r27, 0x41	; 65
     d9c:	89 8b       	std	Y+17, r24	; 0x11
     d9e:	9a 8b       	std	Y+18, r25	; 0x12
     da0:	ab 8b       	std	Y+19, r26	; 0x13
     da2:	bc 8b       	std	Y+20, r27	; 0x14
     da4:	89 e0       	ldi	r24, 0x09	; 9
     da6:	90 e0       	ldi	r25, 0x00	; 0
     da8:	9e 8b       	std	Y+22, r25	; 0x16
     daa:	8d 8b       	std	Y+21, r24	; 0x15
     dac:	15 c0       	rjmp	.+42     	; 0xdd8 <UnityPrintFloat+0x3aa>
     dae:	20 e0       	ldi	r18, 0x00	; 0
     db0:	30 e0       	ldi	r19, 0x00	; 0
     db2:	40 e2       	ldi	r20, 0x20	; 32
     db4:	51 e4       	ldi	r21, 0x41	; 65
     db6:	69 89       	ldd	r22, Y+17	; 0x11
     db8:	7a 89       	ldd	r23, Y+18	; 0x12
     dba:	8b 89       	ldd	r24, Y+19	; 0x13
     dbc:	9c 89       	ldd	r25, Y+20	; 0x14
     dbe:	0e 94 7e 1d 	call	0x3afc	; 0x3afc <__mulsf3>
     dc2:	dc 01       	movw	r26, r24
     dc4:	cb 01       	movw	r24, r22
     dc6:	89 8b       	std	Y+17, r24	; 0x11
     dc8:	9a 8b       	std	Y+18, r25	; 0x12
     dca:	ab 8b       	std	Y+19, r26	; 0x13
     dcc:	bc 8b       	std	Y+20, r27	; 0x14
     dce:	8d 89       	ldd	r24, Y+21	; 0x15
     dd0:	9e 89       	ldd	r25, Y+22	; 0x16
     dd2:	01 96       	adiw	r24, 0x01	; 1
     dd4:	9e 8b       	std	Y+22, r25	; 0x16
     dd6:	8d 8b       	std	Y+21, r24	; 0x15
     dd8:	29 89       	ldd	r18, Y+17	; 0x11
     dda:	3a 89       	ldd	r19, Y+18	; 0x12
     ddc:	4b 89       	ldd	r20, Y+19	; 0x13
     dde:	5c 89       	ldd	r21, Y+20	; 0x14
     de0:	69 81       	ldd	r22, Y+1	; 0x01
     de2:	7a 81       	ldd	r23, Y+2	; 0x02
     de4:	8b 81       	ldd	r24, Y+3	; 0x03
     de6:	9c 81       	ldd	r25, Y+4	; 0x04
     de8:	0e 94 2f 1c 	call	0x385e	; 0x385e <__divsf3>
     dec:	dc 01       	movw	r26, r24
     dee:	cb 01       	movw	r24, r22
     df0:	28 e2       	ldi	r18, 0x28	; 40
     df2:	3b e6       	ldi	r19, 0x6B	; 107
     df4:	4e e6       	ldi	r20, 0x6E	; 110
     df6:	5e e4       	ldi	r21, 0x4E	; 78
     df8:	bc 01       	movw	r22, r24
     dfa:	cd 01       	movw	r24, r26
     dfc:	0e 94 7a 1d 	call	0x3af4	; 0x3af4 <__gesf2>
     e00:	88 23       	and	r24, r24
     e02:	ac f6       	brge	.-86     	; 0xdae <UnityPrintFloat+0x380>
     e04:	29 89       	ldd	r18, Y+17	; 0x11
     e06:	3a 89       	ldd	r19, Y+18	; 0x12
     e08:	4b 89       	ldd	r20, Y+19	; 0x13
     e0a:	5c 89       	ldd	r21, Y+20	; 0x14
     e0c:	69 81       	ldd	r22, Y+1	; 0x01
     e0e:	7a 81       	ldd	r23, Y+2	; 0x02
     e10:	8b 81       	ldd	r24, Y+3	; 0x03
     e12:	9c 81       	ldd	r25, Y+4	; 0x04
     e14:	0e 94 2f 1c 	call	0x385e	; 0x385e <__divsf3>
     e18:	dc 01       	movw	r26, r24
     e1a:	cb 01       	movw	r24, r22
     e1c:	20 e0       	ldi	r18, 0x00	; 0
     e1e:	30 e0       	ldi	r19, 0x00	; 0
     e20:	40 e0       	ldi	r20, 0x00	; 0
     e22:	5f e3       	ldi	r21, 0x3F	; 63
     e24:	bc 01       	movw	r22, r24
     e26:	cd 01       	movw	r24, r26
     e28:	0e 94 c7 1b 	call	0x378e	; 0x378e <__addsf3>
     e2c:	dc 01       	movw	r26, r24
     e2e:	cb 01       	movw	r24, r22
     e30:	bc 01       	movw	r22, r24
     e32:	cd 01       	movw	r24, r26
     e34:	0e 94 97 1c 	call	0x392e	; 0x392e <__fixsfsi>
     e38:	dc 01       	movw	r26, r24
     e3a:	cb 01       	movw	r24, r22
     e3c:	8d 87       	std	Y+13, r24	; 0x0d
     e3e:	9e 87       	std	Y+14, r25	; 0x0e
     e40:	af 87       	std	Y+15, r26	; 0x0f
     e42:	b8 8b       	std	Y+16, r27	; 0x10
     e44:	6d 85       	ldd	r22, Y+13	; 0x0d
     e46:	7e 85       	ldd	r23, Y+14	; 0x0e
     e48:	8f 85       	ldd	r24, Y+15	; 0x0f
     e4a:	98 89       	ldd	r25, Y+16	; 0x10
     e4c:	0e 94 ca 1c 	call	0x3994	; 0x3994 <__floatsisf>
     e50:	6b 01       	movw	r12, r22
     e52:	7c 01       	movw	r14, r24
     e54:	29 89       	ldd	r18, Y+17	; 0x11
     e56:	3a 89       	ldd	r19, Y+18	; 0x12
     e58:	4b 89       	ldd	r20, Y+19	; 0x13
     e5a:	5c 89       	ldd	r21, Y+20	; 0x14
     e5c:	69 81       	ldd	r22, Y+1	; 0x01
     e5e:	7a 81       	ldd	r23, Y+2	; 0x02
     e60:	8b 81       	ldd	r24, Y+3	; 0x03
     e62:	9c 81       	ldd	r25, Y+4	; 0x04
     e64:	0e 94 2f 1c 	call	0x385e	; 0x385e <__divsf3>
     e68:	dc 01       	movw	r26, r24
     e6a:	cb 01       	movw	r24, r22
     e6c:	9c 01       	movw	r18, r24
     e6e:	ad 01       	movw	r20, r26
     e70:	c7 01       	movw	r24, r14
     e72:	b6 01       	movw	r22, r12
     e74:	0e 94 7a 1d 	call	0x3af4	; 0x3af4 <__gesf2>
     e78:	18 16       	cp	r1, r24
     e7a:	0c f0       	brlt	.+2      	; 0xe7e <UnityPrintFloat+0x450>
     e7c:	50 c0       	rjmp	.+160    	; 0xf1e <UnityPrintFloat+0x4f0>
     e7e:	29 89       	ldd	r18, Y+17	; 0x11
     e80:	3a 89       	ldd	r19, Y+18	; 0x12
     e82:	4b 89       	ldd	r20, Y+19	; 0x13
     e84:	5c 89       	ldd	r21, Y+20	; 0x14
     e86:	69 81       	ldd	r22, Y+1	; 0x01
     e88:	7a 81       	ldd	r23, Y+2	; 0x02
     e8a:	8b 81       	ldd	r24, Y+3	; 0x03
     e8c:	9c 81       	ldd	r25, Y+4	; 0x04
     e8e:	0e 94 2f 1c 	call	0x385e	; 0x385e <__divsf3>
     e92:	dc 01       	movw	r26, r24
     e94:	cb 01       	movw	r24, r22
     e96:	6c 01       	movw	r12, r24
     e98:	7d 01       	movw	r14, r26
     e9a:	8d 85       	ldd	r24, Y+13	; 0x0d
     e9c:	9e 85       	ldd	r25, Y+14	; 0x0e
     e9e:	af 85       	ldd	r26, Y+15	; 0x0f
     ea0:	b8 89       	ldd	r27, Y+16	; 0x10
     ea2:	01 97       	sbiw	r24, 0x01	; 1
     ea4:	a1 09       	sbc	r26, r1
     ea6:	b1 09       	sbc	r27, r1
     ea8:	bc 01       	movw	r22, r24
     eaa:	cd 01       	movw	r24, r26
     eac:	0e 94 ca 1c 	call	0x3994	; 0x3994 <__floatsisf>
     eb0:	dc 01       	movw	r26, r24
     eb2:	cb 01       	movw	r24, r22
     eb4:	9c 01       	movw	r18, r24
     eb6:	ad 01       	movw	r20, r26
     eb8:	c7 01       	movw	r24, r14
     eba:	b6 01       	movw	r22, r12
     ebc:	0e 94 c6 1b 	call	0x378c	; 0x378c <__subsf3>
     ec0:	dc 01       	movw	r26, r24
     ec2:	cb 01       	movw	r24, r22
     ec4:	20 e0       	ldi	r18, 0x00	; 0
     ec6:	30 e0       	ldi	r19, 0x00	; 0
     ec8:	40 e0       	ldi	r20, 0x00	; 0
     eca:	5f e3       	ldi	r21, 0x3F	; 63
     ecc:	bc 01       	movw	r22, r24
     ece:	cd 01       	movw	r24, r26
     ed0:	0e 94 2b 1c 	call	0x3856	; 0x3856 <__cmpsf2>
     ed4:	18 16       	cp	r1, r24
     ed6:	1c f1       	brlt	.+70     	; 0xf1e <UnityPrintFloat+0x4f0>
     ed8:	8d 85       	ldd	r24, Y+13	; 0x0d
     eda:	9e 85       	ldd	r25, Y+14	; 0x0e
     edc:	af 85       	ldd	r26, Y+15	; 0x0f
     ede:	b8 89       	ldd	r27, Y+16	; 0x10
     ee0:	81 70       	andi	r24, 0x01	; 1
     ee2:	99 27       	eor	r25, r25
     ee4:	aa 27       	eor	r26, r26
     ee6:	bb 27       	eor	r27, r27
     ee8:	00 97       	sbiw	r24, 0x00	; 0
     eea:	a1 05       	cpc	r26, r1
     eec:	b1 05       	cpc	r27, r1
     eee:	b9 f0       	breq	.+46     	; 0xf1e <UnityPrintFloat+0x4f0>
     ef0:	28 e7       	ldi	r18, 0x78	; 120
     ef2:	36 e8       	ldi	r19, 0x86	; 134
     ef4:	47 e0       	ldi	r20, 0x07	; 7
     ef6:	54 e6       	ldi	r21, 0x64	; 100
     ef8:	69 81       	ldd	r22, Y+1	; 0x01
     efa:	7a 81       	ldd	r23, Y+2	; 0x02
     efc:	8b 81       	ldd	r24, Y+3	; 0x03
     efe:	9c 81       	ldd	r25, Y+4	; 0x04
     f00:	0e 94 2b 1c 	call	0x3856	; 0x3856 <__cmpsf2>
     f04:	88 23       	and	r24, r24
     f06:	5c f4       	brge	.+22     	; 0xf1e <UnityPrintFloat+0x4f0>
     f08:	8d 85       	ldd	r24, Y+13	; 0x0d
     f0a:	9e 85       	ldd	r25, Y+14	; 0x0e
     f0c:	af 85       	ldd	r26, Y+15	; 0x0f
     f0e:	b8 89       	ldd	r27, Y+16	; 0x10
     f10:	01 97       	sbiw	r24, 0x01	; 1
     f12:	a1 09       	sbc	r26, r1
     f14:	b1 09       	sbc	r27, r1
     f16:	8d 87       	std	Y+13, r24	; 0x0d
     f18:	9e 87       	std	Y+14, r25	; 0x0e
     f1a:	af 87       	std	Y+15, r26	; 0x0f
     f1c:	b8 8b       	std	Y+16, r27	; 0x10
     f1e:	00 91 2a 04 	lds	r16, 0x042A
     f22:	10 91 2b 04 	lds	r17, 0x042B
     f26:	8d 85       	ldd	r24, Y+13	; 0x0d
     f28:	9e 85       	ldd	r25, Y+14	; 0x0e
     f2a:	af 85       	ldd	r26, Y+15	; 0x0f
     f2c:	b8 89       	ldd	r27, Y+16	; 0x10
     f2e:	2b 8d       	ldd	r18, Y+27	; 0x1b
     f30:	3c 8d       	ldd	r19, Y+28	; 0x1c
     f32:	4d 8d       	ldd	r20, Y+29	; 0x1d
     f34:	5e 8d       	ldd	r21, Y+30	; 0x1e
     f36:	bc 01       	movw	r22, r24
     f38:	cd 01       	movw	r24, r26
     f3a:	0e 94 a1 1b 	call	0x3742	; 0x3742 <__divmodsi4>
     f3e:	da 01       	movw	r26, r20
     f40:	c9 01       	movw	r24, r18
     f42:	c0 96       	adiw	r24, 0x30	; 48
     f44:	b8 01       	movw	r22, r16
     f46:	0e 94 28 1e 	call	0x3c50	; 0x3c50 <fputc>
     f4a:	8b 8d       	ldd	r24, Y+27	; 0x1b
     f4c:	9c 8d       	ldd	r25, Y+28	; 0x1c
     f4e:	ad 8d       	ldd	r26, Y+29	; 0x1d
     f50:	be 8d       	ldd	r27, Y+30	; 0x1e
     f52:	2a e0       	ldi	r18, 0x0A	; 10
     f54:	30 e0       	ldi	r19, 0x00	; 0
     f56:	40 e0       	ldi	r20, 0x00	; 0
     f58:	50 e0       	ldi	r21, 0x00	; 0
     f5a:	bc 01       	movw	r22, r24
     f5c:	cd 01       	movw	r24, r26
     f5e:	0e 94 a1 1b 	call	0x3742	; 0x3742 <__divmodsi4>
     f62:	da 01       	movw	r26, r20
     f64:	c9 01       	movw	r24, r18
     f66:	7c 01       	movw	r14, r24
     f68:	8d 01       	movw	r16, r26
     f6a:	8d 85       	ldd	r24, Y+13	; 0x0d
     f6c:	9e 85       	ldd	r25, Y+14	; 0x0e
     f6e:	af 85       	ldd	r26, Y+15	; 0x0f
     f70:	b8 89       	ldd	r27, Y+16	; 0x10
     f72:	2b 8d       	ldd	r18, Y+27	; 0x1b
     f74:	3c 8d       	ldd	r19, Y+28	; 0x1c
     f76:	4d 8d       	ldd	r20, Y+29	; 0x1d
     f78:	5e 8d       	ldd	r21, Y+30	; 0x1e
     f7a:	bc 01       	movw	r22, r24
     f7c:	cd 01       	movw	r24, r26
     f7e:	0e 94 a1 1b 	call	0x3742	; 0x3742 <__divmodsi4>
     f82:	dc 01       	movw	r26, r24
     f84:	cb 01       	movw	r24, r22
     f86:	a8 01       	movw	r20, r16
     f88:	97 01       	movw	r18, r14
     f8a:	bc 01       	movw	r22, r24
     f8c:	cd 01       	movw	r24, r26
     f8e:	0e 94 a1 04 	call	0x942	; 0x942 <UnityPrintDecimalAndNumberWithLeadingZeros>
     f92:	80 91 2a 04 	lds	r24, 0x042A
     f96:	90 91 2b 04 	lds	r25, 0x042B
     f9a:	bc 01       	movw	r22, r24
     f9c:	85 e6       	ldi	r24, 0x65	; 101
     f9e:	90 e0       	ldi	r25, 0x00	; 0
     fa0:	0e 94 28 1e 	call	0x3c50	; 0x3c50 <fputc>
     fa4:	80 91 2a 04 	lds	r24, 0x042A
     fa8:	90 91 2b 04 	lds	r25, 0x042B
     fac:	bc 01       	movw	r22, r24
     fae:	8b e2       	ldi	r24, 0x2B	; 43
     fb0:	90 e0       	ldi	r25, 0x00	; 0
     fb2:	0e 94 28 1e 	call	0x3c50	; 0x3c50 <fputc>
     fb6:	8d 89       	ldd	r24, Y+21	; 0x15
     fb8:	9e 89       	ldd	r25, Y+22	; 0x16
     fba:	8a 30       	cpi	r24, 0x0A	; 10
     fbc:	91 05       	cpc	r25, r1
     fbe:	4c f4       	brge	.+18     	; 0xfd2 <UnityPrintFloat+0x5a4>
     fc0:	80 91 2a 04 	lds	r24, 0x042A
     fc4:	90 91 2b 04 	lds	r25, 0x042B
     fc8:	bc 01       	movw	r22, r24
     fca:	80 e3       	ldi	r24, 0x30	; 48
     fcc:	90 e0       	ldi	r25, 0x00	; 0
     fce:	0e 94 28 1e 	call	0x3c50	; 0x3c50 <fputc>
     fd2:	8d 89       	ldd	r24, Y+21	; 0x15
     fd4:	9e 89       	ldd	r25, Y+22	; 0x16
     fd6:	aa 27       	eor	r26, r26
     fd8:	97 fd       	sbrc	r25, 7
     fda:	a0 95       	com	r26
     fdc:	ba 2f       	mov	r27, r26
     fde:	bc 01       	movw	r22, r24
     fe0:	cd 01       	movw	r24, r26
     fe2:	0e 94 ea 02 	call	0x5d4	; 0x5d4 <UnityPrintNumber>
     fe6:	ae 96       	adiw	r28, 0x2e	; 46
     fe8:	0f b6       	in	r0, 0x3f	; 63
     fea:	f8 94       	cli
     fec:	de bf       	out	0x3e, r29	; 62
     fee:	0f be       	out	0x3f, r0	; 63
     ff0:	cd bf       	out	0x3d, r28	; 61
     ff2:	df 91       	pop	r29
     ff4:	cf 91       	pop	r28
     ff6:	1f 91       	pop	r17
     ff8:	0f 91       	pop	r16
     ffa:	ff 90       	pop	r15
     ffc:	ef 90       	pop	r14
     ffe:	df 90       	pop	r13
    1000:	cf 90       	pop	r12
    1002:	08 95       	ret

00001004 <UnityTestResultsBegin>:
    1004:	cf 93       	push	r28
    1006:	df 93       	push	r29
    1008:	00 d0       	rcall	.+0      	; 0x100a <UnityTestResultsBegin+0x6>
    100a:	00 d0       	rcall	.+0      	; 0x100c <UnityTestResultsBegin+0x8>
    100c:	cd b7       	in	r28, 0x3d	; 61
    100e:	de b7       	in	r29, 0x3e	; 62
    1010:	9a 83       	std	Y+2, r25	; 0x02
    1012:	89 83       	std	Y+1, r24	; 0x01
    1014:	4b 83       	std	Y+3, r20	; 0x03
    1016:	5c 83       	std	Y+4, r21	; 0x04
    1018:	6d 83       	std	Y+5, r22	; 0x05
    101a:	7e 83       	std	Y+6, r23	; 0x06
    101c:	89 81       	ldd	r24, Y+1	; 0x01
    101e:	9a 81       	ldd	r25, Y+2	; 0x02
    1020:	0e 94 54 01 	call	0x2a8	; 0x2a8 <UnityPrint>
    1024:	80 91 2a 04 	lds	r24, 0x042A
    1028:	90 91 2b 04 	lds	r25, 0x042B
    102c:	bc 01       	movw	r22, r24
    102e:	8a e3       	ldi	r24, 0x3A	; 58
    1030:	90 e0       	ldi	r25, 0x00	; 0
    1032:	0e 94 28 1e 	call	0x3c50	; 0x3c50 <fputc>
    1036:	8b 81       	ldd	r24, Y+3	; 0x03
    1038:	9c 81       	ldd	r25, Y+4	; 0x04
    103a:	ad 81       	ldd	r26, Y+5	; 0x05
    103c:	be 81       	ldd	r27, Y+6	; 0x06
    103e:	bc 01       	movw	r22, r24
    1040:	cd 01       	movw	r24, r26
    1042:	0e 94 ea 02 	call	0x5d4	; 0x5d4 <UnityPrintNumber>
    1046:	80 91 2a 04 	lds	r24, 0x042A
    104a:	90 91 2b 04 	lds	r25, 0x042B
    104e:	bc 01       	movw	r22, r24
    1050:	8a e3       	ldi	r24, 0x3A	; 58
    1052:	90 e0       	ldi	r25, 0x00	; 0
    1054:	0e 94 28 1e 	call	0x3c50	; 0x3c50 <fputc>
    1058:	80 91 f2 03 	lds	r24, 0x03F2
    105c:	90 91 f3 03 	lds	r25, 0x03F3
    1060:	0e 94 54 01 	call	0x2a8	; 0x2a8 <UnityPrint>
    1064:	80 91 2a 04 	lds	r24, 0x042A
    1068:	90 91 2b 04 	lds	r25, 0x042B
    106c:	bc 01       	movw	r22, r24
    106e:	8a e3       	ldi	r24, 0x3A	; 58
    1070:	90 e0       	ldi	r25, 0x00	; 0
    1072:	0e 94 28 1e 	call	0x3c50	; 0x3c50 <fputc>
    1076:	26 96       	adiw	r28, 0x06	; 6
    1078:	0f b6       	in	r0, 0x3f	; 63
    107a:	f8 94       	cli
    107c:	de bf       	out	0x3e, r29	; 62
    107e:	0f be       	out	0x3f, r0	; 63
    1080:	cd bf       	out	0x3d, r28	; 61
    1082:	df 91       	pop	r29
    1084:	cf 91       	pop	r28
    1086:	08 95       	ret

00001088 <UnityTestResultsFailBegin>:
    1088:	cf 93       	push	r28
    108a:	df 93       	push	r29
    108c:	00 d0       	rcall	.+0      	; 0x108e <UnityTestResultsFailBegin+0x6>
    108e:	1f 92       	push	r1
    1090:	cd b7       	in	r28, 0x3d	; 61
    1092:	de b7       	in	r29, 0x3e	; 62
    1094:	69 83       	std	Y+1, r22	; 0x01
    1096:	7a 83       	std	Y+2, r23	; 0x02
    1098:	8b 83       	std	Y+3, r24	; 0x03
    109a:	9c 83       	std	Y+4, r25	; 0x04
    109c:	20 91 f0 03 	lds	r18, 0x03F0
    10a0:	30 91 f1 03 	lds	r19, 0x03F1
    10a4:	89 81       	ldd	r24, Y+1	; 0x01
    10a6:	9a 81       	ldd	r25, Y+2	; 0x02
    10a8:	ab 81       	ldd	r26, Y+3	; 0x03
    10aa:	bc 81       	ldd	r27, Y+4	; 0x04
    10ac:	ac 01       	movw	r20, r24
    10ae:	bd 01       	movw	r22, r26
    10b0:	c9 01       	movw	r24, r18
    10b2:	0e 94 02 08 	call	0x1004	; 0x1004 <UnityTestResultsBegin>
    10b6:	88 e0       	ldi	r24, 0x08	; 8
    10b8:	92 e0       	ldi	r25, 0x02	; 2
    10ba:	0e 94 54 01 	call	0x2a8	; 0x2a8 <UnityPrint>
    10be:	80 91 2a 04 	lds	r24, 0x042A
    10c2:	90 91 2b 04 	lds	r25, 0x042B
    10c6:	bc 01       	movw	r22, r24
    10c8:	8a e3       	ldi	r24, 0x3A	; 58
    10ca:	90 e0       	ldi	r25, 0x00	; 0
    10cc:	0e 94 28 1e 	call	0x3c50	; 0x3c50 <fputc>
    10d0:	0f 90       	pop	r0
    10d2:	0f 90       	pop	r0
    10d4:	0f 90       	pop	r0
    10d6:	0f 90       	pop	r0
    10d8:	df 91       	pop	r29
    10da:	cf 91       	pop	r28
    10dc:	08 95       	ret

000010de <UnityConcludeTest>:
    10de:	cf 93       	push	r28
    10e0:	df 93       	push	r29
    10e2:	cd b7       	in	r28, 0x3d	; 61
    10e4:	de b7       	in	r29, 0x3e	; 62
    10e6:	80 91 0c 04 	lds	r24, 0x040C
    10ea:	90 91 0d 04 	lds	r25, 0x040D
    10ee:	a0 91 0e 04 	lds	r26, 0x040E
    10f2:	b0 91 0f 04 	lds	r27, 0x040F
    10f6:	00 97       	sbiw	r24, 0x00	; 0
    10f8:	a1 05       	cpc	r26, r1
    10fa:	b1 05       	cpc	r27, r1
    10fc:	a1 f0       	breq	.+40     	; 0x1126 <UnityConcludeTest+0x48>
    10fe:	80 91 04 04 	lds	r24, 0x0404
    1102:	90 91 05 04 	lds	r25, 0x0405
    1106:	a0 91 06 04 	lds	r26, 0x0406
    110a:	b0 91 07 04 	lds	r27, 0x0407
    110e:	01 96       	adiw	r24, 0x01	; 1
    1110:	a1 1d       	adc	r26, r1
    1112:	b1 1d       	adc	r27, r1
    1114:	80 93 04 04 	sts	0x0404, r24
    1118:	90 93 05 04 	sts	0x0405, r25
    111c:	a0 93 06 04 	sts	0x0406, r26
    1120:	b0 93 07 04 	sts	0x0407, r27
    1124:	35 c0       	rjmp	.+106    	; 0x1190 <UnityConcludeTest+0xb2>
    1126:	80 91 08 04 	lds	r24, 0x0408
    112a:	90 91 09 04 	lds	r25, 0x0409
    112e:	a0 91 0a 04 	lds	r26, 0x040A
    1132:	b0 91 0b 04 	lds	r27, 0x040B
    1136:	00 97       	sbiw	r24, 0x00	; 0
    1138:	a1 05       	cpc	r26, r1
    113a:	b1 05       	cpc	r27, r1
    113c:	b1 f4       	brne	.+44     	; 0x116a <UnityConcludeTest+0x8c>
    113e:	80 91 f8 03 	lds	r24, 0x03F8
    1142:	90 91 f9 03 	lds	r25, 0x03F9
    1146:	a0 91 fa 03 	lds	r26, 0x03FA
    114a:	b0 91 fb 03 	lds	r27, 0x03FB
    114e:	20 91 f0 03 	lds	r18, 0x03F0
    1152:	30 91 f1 03 	lds	r19, 0x03F1
    1156:	ac 01       	movw	r20, r24
    1158:	bd 01       	movw	r22, r26
    115a:	c9 01       	movw	r24, r18
    115c:	0e 94 02 08 	call	0x1004	; 0x1004 <UnityTestResultsBegin>
    1160:	83 e0       	ldi	r24, 0x03	; 3
    1162:	92 e0       	ldi	r25, 0x02	; 2
    1164:	0e 94 54 01 	call	0x2a8	; 0x2a8 <UnityPrint>
    1168:	13 c0       	rjmp	.+38     	; 0x1190 <UnityConcludeTest+0xb2>
    116a:	80 91 00 04 	lds	r24, 0x0400
    116e:	90 91 01 04 	lds	r25, 0x0401
    1172:	a0 91 02 04 	lds	r26, 0x0402
    1176:	b0 91 03 04 	lds	r27, 0x0403
    117a:	01 96       	adiw	r24, 0x01	; 1
    117c:	a1 1d       	adc	r26, r1
    117e:	b1 1d       	adc	r27, r1
    1180:	80 93 00 04 	sts	0x0400, r24
    1184:	90 93 01 04 	sts	0x0401, r25
    1188:	a0 93 02 04 	sts	0x0402, r26
    118c:	b0 93 03 04 	sts	0x0403, r27
    1190:	10 92 08 04 	sts	0x0408, r1
    1194:	10 92 09 04 	sts	0x0409, r1
    1198:	10 92 0a 04 	sts	0x040A, r1
    119c:	10 92 0b 04 	sts	0x040B, r1
    11a0:	10 92 0c 04 	sts	0x040C, r1
    11a4:	10 92 0d 04 	sts	0x040D, r1
    11a8:	10 92 0e 04 	sts	0x040E, r1
    11ac:	10 92 0f 04 	sts	0x040F, r1
    11b0:	80 91 2a 04 	lds	r24, 0x042A
    11b4:	90 91 2b 04 	lds	r25, 0x042B
    11b8:	bc 01       	movw	r22, r24
    11ba:	8a e0       	ldi	r24, 0x0A	; 10
    11bc:	90 e0       	ldi	r25, 0x00	; 0
    11be:	0e 94 28 1e 	call	0x3c50	; 0x3c50 <fputc>
    11c2:	df 91       	pop	r29
    11c4:	cf 91       	pop	r28
    11c6:	08 95       	ret

000011c8 <UnityAddMsgIfSpecified>:
    11c8:	cf 93       	push	r28
    11ca:	df 93       	push	r29
    11cc:	1f 92       	push	r1
    11ce:	1f 92       	push	r1
    11d0:	cd b7       	in	r28, 0x3d	; 61
    11d2:	de b7       	in	r29, 0x3e	; 62
    11d4:	9a 83       	std	Y+2, r25	; 0x02
    11d6:	89 83       	std	Y+1, r24	; 0x01
    11d8:	89 81       	ldd	r24, Y+1	; 0x01
    11da:	9a 81       	ldd	r25, Y+2	; 0x02
    11dc:	00 97       	sbiw	r24, 0x00	; 0
    11de:	61 f1       	breq	.+88     	; 0x1238 <UnityAddMsgIfSpecified+0x70>
    11e0:	89 e1       	ldi	r24, 0x19	; 25
    11e2:	92 e0       	ldi	r25, 0x02	; 2
    11e4:	0e 94 54 01 	call	0x2a8	; 0x2a8 <UnityPrint>
    11e8:	80 91 f4 03 	lds	r24, 0x03F4
    11ec:	90 91 f5 03 	lds	r25, 0x03F5
    11f0:	00 97       	sbiw	r24, 0x00	; 0
    11f2:	f1 f0       	breq	.+60     	; 0x1230 <UnityAddMsgIfSpecified+0x68>
    11f4:	8c ea       	ldi	r24, 0xAC	; 172
    11f6:	93 e0       	ldi	r25, 0x03	; 3
    11f8:	0e 94 54 01 	call	0x2a8	; 0x2a8 <UnityPrint>
    11fc:	80 91 f4 03 	lds	r24, 0x03F4
    1200:	90 91 f5 03 	lds	r25, 0x03F5
    1204:	0e 94 54 01 	call	0x2a8	; 0x2a8 <UnityPrint>
    1208:	80 91 f6 03 	lds	r24, 0x03F6
    120c:	90 91 f7 03 	lds	r25, 0x03F7
    1210:	00 97       	sbiw	r24, 0x00	; 0
    1212:	51 f0       	breq	.+20     	; 0x1228 <UnityAddMsgIfSpecified+0x60>
    1214:	86 eb       	ldi	r24, 0xB6	; 182
    1216:	93 e0       	ldi	r25, 0x03	; 3
    1218:	0e 94 54 01 	call	0x2a8	; 0x2a8 <UnityPrint>
    121c:	80 91 f6 03 	lds	r24, 0x03F6
    1220:	90 91 f7 03 	lds	r25, 0x03F7
    1224:	0e 94 54 01 	call	0x2a8	; 0x2a8 <UnityPrint>
    1228:	89 e1       	ldi	r24, 0x19	; 25
    122a:	92 e0       	ldi	r25, 0x02	; 2
    122c:	0e 94 54 01 	call	0x2a8	; 0x2a8 <UnityPrint>
    1230:	89 81       	ldd	r24, Y+1	; 0x01
    1232:	9a 81       	ldd	r25, Y+2	; 0x02
    1234:	0e 94 54 01 	call	0x2a8	; 0x2a8 <UnityPrint>
    1238:	0f 90       	pop	r0
    123a:	0f 90       	pop	r0
    123c:	df 91       	pop	r29
    123e:	cf 91       	pop	r28
    1240:	08 95       	ret

00001242 <UnityPrintExpectedAndActualStrings>:
    1242:	cf 93       	push	r28
    1244:	df 93       	push	r29
    1246:	00 d0       	rcall	.+0      	; 0x1248 <UnityPrintExpectedAndActualStrings+0x6>
    1248:	1f 92       	push	r1
    124a:	cd b7       	in	r28, 0x3d	; 61
    124c:	de b7       	in	r29, 0x3e	; 62
    124e:	9a 83       	std	Y+2, r25	; 0x02
    1250:	89 83       	std	Y+1, r24	; 0x01
    1252:	7c 83       	std	Y+4, r23	; 0x04
    1254:	6b 83       	std	Y+3, r22	; 0x03
    1256:	8c e1       	ldi	r24, 0x1C	; 28
    1258:	92 e0       	ldi	r25, 0x02	; 2
    125a:	0e 94 54 01 	call	0x2a8	; 0x2a8 <UnityPrint>
    125e:	89 81       	ldd	r24, Y+1	; 0x01
    1260:	9a 81       	ldd	r25, Y+2	; 0x02
    1262:	00 97       	sbiw	r24, 0x00	; 0
    1264:	b9 f0       	breq	.+46     	; 0x1294 <UnityPrintExpectedAndActualStrings+0x52>
    1266:	80 91 2a 04 	lds	r24, 0x042A
    126a:	90 91 2b 04 	lds	r25, 0x042B
    126e:	bc 01       	movw	r22, r24
    1270:	87 e2       	ldi	r24, 0x27	; 39
    1272:	90 e0       	ldi	r25, 0x00	; 0
    1274:	0e 94 28 1e 	call	0x3c50	; 0x3c50 <fputc>
    1278:	89 81       	ldd	r24, Y+1	; 0x01
    127a:	9a 81       	ldd	r25, Y+2	; 0x02
    127c:	0e 94 54 01 	call	0x2a8	; 0x2a8 <UnityPrint>
    1280:	80 91 2a 04 	lds	r24, 0x042A
    1284:	90 91 2b 04 	lds	r25, 0x042B
    1288:	bc 01       	movw	r22, r24
    128a:	87 e2       	ldi	r24, 0x27	; 39
    128c:	90 e0       	ldi	r25, 0x00	; 0
    128e:	0e 94 28 1e 	call	0x3c50	; 0x3c50 <fputc>
    1292:	04 c0       	rjmp	.+8      	; 0x129c <UnityPrintExpectedAndActualStrings+0x5a>
    1294:	84 e1       	ldi	r24, 0x14	; 20
    1296:	92 e0       	ldi	r25, 0x02	; 2
    1298:	0e 94 54 01 	call	0x2a8	; 0x2a8 <UnityPrint>
    129c:	87 e2       	ldi	r24, 0x27	; 39
    129e:	92 e0       	ldi	r25, 0x02	; 2
    12a0:	0e 94 54 01 	call	0x2a8	; 0x2a8 <UnityPrint>
    12a4:	8b 81       	ldd	r24, Y+3	; 0x03
    12a6:	9c 81       	ldd	r25, Y+4	; 0x04
    12a8:	00 97       	sbiw	r24, 0x00	; 0
    12aa:	b9 f0       	breq	.+46     	; 0x12da <UnityPrintExpectedAndActualStrings+0x98>
    12ac:	80 91 2a 04 	lds	r24, 0x042A
    12b0:	90 91 2b 04 	lds	r25, 0x042B
    12b4:	bc 01       	movw	r22, r24
    12b6:	87 e2       	ldi	r24, 0x27	; 39
    12b8:	90 e0       	ldi	r25, 0x00	; 0
    12ba:	0e 94 28 1e 	call	0x3c50	; 0x3c50 <fputc>
    12be:	8b 81       	ldd	r24, Y+3	; 0x03
    12c0:	9c 81       	ldd	r25, Y+4	; 0x04
    12c2:	0e 94 54 01 	call	0x2a8	; 0x2a8 <UnityPrint>
    12c6:	80 91 2a 04 	lds	r24, 0x042A
    12ca:	90 91 2b 04 	lds	r25, 0x042B
    12ce:	bc 01       	movw	r22, r24
    12d0:	87 e2       	ldi	r24, 0x27	; 39
    12d2:	90 e0       	ldi	r25, 0x00	; 0
    12d4:	0e 94 28 1e 	call	0x3c50	; 0x3c50 <fputc>
    12d8:	04 c0       	rjmp	.+8      	; 0x12e2 <UnityPrintExpectedAndActualStrings+0xa0>
    12da:	84 e1       	ldi	r24, 0x14	; 20
    12dc:	92 e0       	ldi	r25, 0x02	; 2
    12de:	0e 94 54 01 	call	0x2a8	; 0x2a8 <UnityPrint>
    12e2:	0f 90       	pop	r0
    12e4:	0f 90       	pop	r0
    12e6:	0f 90       	pop	r0
    12e8:	0f 90       	pop	r0
    12ea:	df 91       	pop	r29
    12ec:	cf 91       	pop	r28
    12ee:	08 95       	ret

000012f0 <UnityPrintExpectedAndActualStringsLen>:
    12f0:	cf 93       	push	r28
    12f2:	df 93       	push	r29
    12f4:	cd b7       	in	r28, 0x3d	; 61
    12f6:	de b7       	in	r29, 0x3e	; 62
    12f8:	28 97       	sbiw	r28, 0x08	; 8
    12fa:	0f b6       	in	r0, 0x3f	; 63
    12fc:	f8 94       	cli
    12fe:	de bf       	out	0x3e, r29	; 62
    1300:	0f be       	out	0x3f, r0	; 63
    1302:	cd bf       	out	0x3d, r28	; 61
    1304:	9a 83       	std	Y+2, r25	; 0x02
    1306:	89 83       	std	Y+1, r24	; 0x01
    1308:	7c 83       	std	Y+4, r23	; 0x04
    130a:	6b 83       	std	Y+3, r22	; 0x03
    130c:	2d 83       	std	Y+5, r18	; 0x05
    130e:	3e 83       	std	Y+6, r19	; 0x06
    1310:	4f 83       	std	Y+7, r20	; 0x07
    1312:	58 87       	std	Y+8, r21	; 0x08
    1314:	8c e1       	ldi	r24, 0x1C	; 28
    1316:	92 e0       	ldi	r25, 0x02	; 2
    1318:	0e 94 54 01 	call	0x2a8	; 0x2a8 <UnityPrint>
    131c:	89 81       	ldd	r24, Y+1	; 0x01
    131e:	9a 81       	ldd	r25, Y+2	; 0x02
    1320:	00 97       	sbiw	r24, 0x00	; 0
    1322:	f1 f0       	breq	.+60     	; 0x1360 <UnityPrintExpectedAndActualStringsLen+0x70>
    1324:	80 91 2a 04 	lds	r24, 0x042A
    1328:	90 91 2b 04 	lds	r25, 0x042B
    132c:	bc 01       	movw	r22, r24
    132e:	87 e2       	ldi	r24, 0x27	; 39
    1330:	90 e0       	ldi	r25, 0x00	; 0
    1332:	0e 94 28 1e 	call	0x3c50	; 0x3c50 <fputc>
    1336:	8d 81       	ldd	r24, Y+5	; 0x05
    1338:	9e 81       	ldd	r25, Y+6	; 0x06
    133a:	af 81       	ldd	r26, Y+7	; 0x07
    133c:	b8 85       	ldd	r27, Y+8	; 0x08
    133e:	29 81       	ldd	r18, Y+1	; 0x01
    1340:	3a 81       	ldd	r19, Y+2	; 0x02
    1342:	ac 01       	movw	r20, r24
    1344:	bd 01       	movw	r22, r26
    1346:	c9 01       	movw	r24, r18
    1348:	0e 94 e6 01 	call	0x3cc	; 0x3cc <UnityPrintLen>
    134c:	80 91 2a 04 	lds	r24, 0x042A
    1350:	90 91 2b 04 	lds	r25, 0x042B
    1354:	bc 01       	movw	r22, r24
    1356:	87 e2       	ldi	r24, 0x27	; 39
    1358:	90 e0       	ldi	r25, 0x00	; 0
    135a:	0e 94 28 1e 	call	0x3c50	; 0x3c50 <fputc>
    135e:	04 c0       	rjmp	.+8      	; 0x1368 <UnityPrintExpectedAndActualStringsLen+0x78>
    1360:	84 e1       	ldi	r24, 0x14	; 20
    1362:	92 e0       	ldi	r25, 0x02	; 2
    1364:	0e 94 54 01 	call	0x2a8	; 0x2a8 <UnityPrint>
    1368:	87 e2       	ldi	r24, 0x27	; 39
    136a:	92 e0       	ldi	r25, 0x02	; 2
    136c:	0e 94 54 01 	call	0x2a8	; 0x2a8 <UnityPrint>
    1370:	8b 81       	ldd	r24, Y+3	; 0x03
    1372:	9c 81       	ldd	r25, Y+4	; 0x04
    1374:	00 97       	sbiw	r24, 0x00	; 0
    1376:	f1 f0       	breq	.+60     	; 0x13b4 <UnityPrintExpectedAndActualStringsLen+0xc4>
    1378:	80 91 2a 04 	lds	r24, 0x042A
    137c:	90 91 2b 04 	lds	r25, 0x042B
    1380:	bc 01       	movw	r22, r24
    1382:	87 e2       	ldi	r24, 0x27	; 39
    1384:	90 e0       	ldi	r25, 0x00	; 0
    1386:	0e 94 28 1e 	call	0x3c50	; 0x3c50 <fputc>
    138a:	8d 81       	ldd	r24, Y+5	; 0x05
    138c:	9e 81       	ldd	r25, Y+6	; 0x06
    138e:	af 81       	ldd	r26, Y+7	; 0x07
    1390:	b8 85       	ldd	r27, Y+8	; 0x08
    1392:	2b 81       	ldd	r18, Y+3	; 0x03
    1394:	3c 81       	ldd	r19, Y+4	; 0x04
    1396:	ac 01       	movw	r20, r24
    1398:	bd 01       	movw	r22, r26
    139a:	c9 01       	movw	r24, r18
    139c:	0e 94 e6 01 	call	0x3cc	; 0x3cc <UnityPrintLen>
    13a0:	80 91 2a 04 	lds	r24, 0x042A
    13a4:	90 91 2b 04 	lds	r25, 0x042B
    13a8:	bc 01       	movw	r22, r24
    13aa:	87 e2       	ldi	r24, 0x27	; 39
    13ac:	90 e0       	ldi	r25, 0x00	; 0
    13ae:	0e 94 28 1e 	call	0x3c50	; 0x3c50 <fputc>
    13b2:	04 c0       	rjmp	.+8      	; 0x13bc <UnityPrintExpectedAndActualStringsLen+0xcc>
    13b4:	84 e1       	ldi	r24, 0x14	; 20
    13b6:	92 e0       	ldi	r25, 0x02	; 2
    13b8:	0e 94 54 01 	call	0x2a8	; 0x2a8 <UnityPrint>
    13bc:	28 96       	adiw	r28, 0x08	; 8
    13be:	0f b6       	in	r0, 0x3f	; 63
    13c0:	f8 94       	cli
    13c2:	de bf       	out	0x3e, r29	; 62
    13c4:	0f be       	out	0x3f, r0	; 63
    13c6:	cd bf       	out	0x3d, r28	; 61
    13c8:	df 91       	pop	r29
    13ca:	cf 91       	pop	r28
    13cc:	08 95       	ret

000013ce <UnityIsOneArrayNull>:
    13ce:	0f 93       	push	r16
    13d0:	1f 93       	push	r17
    13d2:	cf 93       	push	r28
    13d4:	df 93       	push	r29
    13d6:	cd b7       	in	r28, 0x3d	; 61
    13d8:	de b7       	in	r29, 0x3e	; 62
    13da:	2a 97       	sbiw	r28, 0x0a	; 10
    13dc:	0f b6       	in	r0, 0x3f	; 63
    13de:	f8 94       	cli
    13e0:	de bf       	out	0x3e, r29	; 62
    13e2:	0f be       	out	0x3f, r0	; 63
    13e4:	cd bf       	out	0x3d, r28	; 61
    13e6:	9a 83       	std	Y+2, r25	; 0x02
    13e8:	89 83       	std	Y+1, r24	; 0x01
    13ea:	7c 83       	std	Y+4, r23	; 0x04
    13ec:	6b 83       	std	Y+3, r22	; 0x03
    13ee:	2d 83       	std	Y+5, r18	; 0x05
    13f0:	3e 83       	std	Y+6, r19	; 0x06
    13f2:	4f 83       	std	Y+7, r20	; 0x07
    13f4:	58 87       	std	Y+8, r21	; 0x08
    13f6:	1a 87       	std	Y+10, r17	; 0x0a
    13f8:	09 87       	std	Y+9, r16	; 0x09
    13fa:	29 81       	ldd	r18, Y+1	; 0x01
    13fc:	3a 81       	ldd	r19, Y+2	; 0x02
    13fe:	8b 81       	ldd	r24, Y+3	; 0x03
    1400:	9c 81       	ldd	r25, Y+4	; 0x04
    1402:	28 17       	cp	r18, r24
    1404:	39 07       	cpc	r19, r25
    1406:	19 f4       	brne	.+6      	; 0x140e <UnityIsOneArrayNull+0x40>
    1408:	80 e0       	ldi	r24, 0x00	; 0
    140a:	90 e0       	ldi	r25, 0x00	; 0
    140c:	30 c0       	rjmp	.+96     	; 0x146e <UnityIsOneArrayNull+0xa0>
    140e:	89 81       	ldd	r24, Y+1	; 0x01
    1410:	9a 81       	ldd	r25, Y+2	; 0x02
    1412:	00 97       	sbiw	r24, 0x00	; 0
    1414:	99 f4       	brne	.+38     	; 0x143c <UnityIsOneArrayNull+0x6e>
    1416:	8d 81       	ldd	r24, Y+5	; 0x05
    1418:	9e 81       	ldd	r25, Y+6	; 0x06
    141a:	af 81       	ldd	r26, Y+7	; 0x07
    141c:	b8 85       	ldd	r27, Y+8	; 0x08
    141e:	bc 01       	movw	r22, r24
    1420:	cd 01       	movw	r24, r26
    1422:	0e 94 44 08 	call	0x1088	; 0x1088 <UnityTestResultsFailBegin>
    1426:	81 ea       	ldi	r24, 0xA1	; 161
    1428:	92 e0       	ldi	r25, 0x02	; 2
    142a:	0e 94 54 01 	call	0x2a8	; 0x2a8 <UnityPrint>
    142e:	89 85       	ldd	r24, Y+9	; 0x09
    1430:	9a 85       	ldd	r25, Y+10	; 0x0a
    1432:	0e 94 e4 08 	call	0x11c8	; 0x11c8 <UnityAddMsgIfSpecified>
    1436:	81 e0       	ldi	r24, 0x01	; 1
    1438:	90 e0       	ldi	r25, 0x00	; 0
    143a:	19 c0       	rjmp	.+50     	; 0x146e <UnityIsOneArrayNull+0xa0>
    143c:	8b 81       	ldd	r24, Y+3	; 0x03
    143e:	9c 81       	ldd	r25, Y+4	; 0x04
    1440:	00 97       	sbiw	r24, 0x00	; 0
    1442:	99 f4       	brne	.+38     	; 0x146a <UnityIsOneArrayNull+0x9c>
    1444:	8d 81       	ldd	r24, Y+5	; 0x05
    1446:	9e 81       	ldd	r25, Y+6	; 0x06
    1448:	af 81       	ldd	r26, Y+7	; 0x07
    144a:	b8 85       	ldd	r27, Y+8	; 0x08
    144c:	bc 01       	movw	r22, r24
    144e:	cd 01       	movw	r24, r26
    1450:	0e 94 44 08 	call	0x1088	; 0x1088 <UnityTestResultsFailBegin>
    1454:	8e eb       	ldi	r24, 0xBE	; 190
    1456:	92 e0       	ldi	r25, 0x02	; 2
    1458:	0e 94 54 01 	call	0x2a8	; 0x2a8 <UnityPrint>
    145c:	89 85       	ldd	r24, Y+9	; 0x09
    145e:	9a 85       	ldd	r25, Y+10	; 0x0a
    1460:	0e 94 e4 08 	call	0x11c8	; 0x11c8 <UnityAddMsgIfSpecified>
    1464:	81 e0       	ldi	r24, 0x01	; 1
    1466:	90 e0       	ldi	r25, 0x00	; 0
    1468:	02 c0       	rjmp	.+4      	; 0x146e <UnityIsOneArrayNull+0xa0>
    146a:	80 e0       	ldi	r24, 0x00	; 0
    146c:	90 e0       	ldi	r25, 0x00	; 0
    146e:	2a 96       	adiw	r28, 0x0a	; 10
    1470:	0f b6       	in	r0, 0x3f	; 63
    1472:	f8 94       	cli
    1474:	de bf       	out	0x3e, r29	; 62
    1476:	0f be       	out	0x3f, r0	; 63
    1478:	cd bf       	out	0x3d, r28	; 61
    147a:	df 91       	pop	r29
    147c:	cf 91       	pop	r28
    147e:	1f 91       	pop	r17
    1480:	0f 91       	pop	r16
    1482:	08 95       	ret

00001484 <UnityAssertBits>:
    1484:	8f 92       	push	r8
    1486:	9f 92       	push	r9
    1488:	af 92       	push	r10
    148a:	bf 92       	push	r11
    148c:	cf 92       	push	r12
    148e:	df 92       	push	r13
    1490:	ef 92       	push	r14
    1492:	ff 92       	push	r15
    1494:	0f 93       	push	r16
    1496:	1f 93       	push	r17
    1498:	cf 93       	push	r28
    149a:	df 93       	push	r29
    149c:	cd b7       	in	r28, 0x3d	; 61
    149e:	de b7       	in	r29, 0x3e	; 62
    14a0:	62 97       	sbiw	r28, 0x12	; 18
    14a2:	0f b6       	in	r0, 0x3f	; 63
    14a4:	f8 94       	cli
    14a6:	de bf       	out	0x3e, r29	; 62
    14a8:	0f be       	out	0x3f, r0	; 63
    14aa:	cd bf       	out	0x3d, r28	; 61
    14ac:	69 83       	std	Y+1, r22	; 0x01
    14ae:	7a 83       	std	Y+2, r23	; 0x02
    14b0:	8b 83       	std	Y+3, r24	; 0x03
    14b2:	9c 83       	std	Y+4, r25	; 0x04
    14b4:	2d 83       	std	Y+5, r18	; 0x05
    14b6:	3e 83       	std	Y+6, r19	; 0x06
    14b8:	4f 83       	std	Y+7, r20	; 0x07
    14ba:	58 87       	std	Y+8, r21	; 0x08
    14bc:	e9 86       	std	Y+9, r14	; 0x09
    14be:	fa 86       	std	Y+10, r15	; 0x0a
    14c0:	0b 87       	std	Y+11, r16	; 0x0b
    14c2:	1c 87       	std	Y+12, r17	; 0x0c
    14c4:	de 86       	std	Y+14, r13	; 0x0e
    14c6:	cd 86       	std	Y+13, r12	; 0x0d
    14c8:	8f 86       	std	Y+15, r8	; 0x0f
    14ca:	98 8a       	std	Y+16, r9	; 0x10
    14cc:	a9 8a       	std	Y+17, r10	; 0x11
    14ce:	ba 8a       	std	Y+18, r11	; 0x12
    14d0:	80 91 08 04 	lds	r24, 0x0408
    14d4:	90 91 09 04 	lds	r25, 0x0409
    14d8:	a0 91 0a 04 	lds	r26, 0x040A
    14dc:	b0 91 0b 04 	lds	r27, 0x040B
    14e0:	00 97       	sbiw	r24, 0x00	; 0
    14e2:	a1 05       	cpc	r26, r1
    14e4:	b1 05       	cpc	r27, r1
    14e6:	61 f4       	brne	.+24     	; 0x1500 <UnityAssertBits+0x7c>
    14e8:	80 91 0c 04 	lds	r24, 0x040C
    14ec:	90 91 0d 04 	lds	r25, 0x040D
    14f0:	a0 91 0e 04 	lds	r26, 0x040E
    14f4:	b0 91 0f 04 	lds	r27, 0x040F
    14f8:	00 97       	sbiw	r24, 0x00	; 0
    14fa:	a1 05       	cpc	r26, r1
    14fc:	b1 05       	cpc	r27, r1
    14fe:	09 f0       	breq	.+2      	; 0x1502 <UnityAssertBits+0x7e>
    1500:	56 c0       	rjmp	.+172    	; 0x15ae <UnityAssertBits+0x12a>
    1502:	2d 81       	ldd	r18, Y+5	; 0x05
    1504:	3e 81       	ldd	r19, Y+6	; 0x06
    1506:	4f 81       	ldd	r20, Y+7	; 0x07
    1508:	58 85       	ldd	r21, Y+8	; 0x08
    150a:	89 85       	ldd	r24, Y+9	; 0x09
    150c:	9a 85       	ldd	r25, Y+10	; 0x0a
    150e:	ab 85       	ldd	r26, Y+11	; 0x0b
    1510:	bc 85       	ldd	r27, Y+12	; 0x0c
    1512:	28 27       	eor	r18, r24
    1514:	39 27       	eor	r19, r25
    1516:	4a 27       	eor	r20, r26
    1518:	5b 27       	eor	r21, r27
    151a:	89 81       	ldd	r24, Y+1	; 0x01
    151c:	9a 81       	ldd	r25, Y+2	; 0x02
    151e:	ab 81       	ldd	r26, Y+3	; 0x03
    1520:	bc 81       	ldd	r27, Y+4	; 0x04
    1522:	82 23       	and	r24, r18
    1524:	93 23       	and	r25, r19
    1526:	a4 23       	and	r26, r20
    1528:	b5 23       	and	r27, r21
    152a:	00 97       	sbiw	r24, 0x00	; 0
    152c:	a1 05       	cpc	r26, r1
    152e:	b1 05       	cpc	r27, r1
    1530:	f1 f1       	breq	.+124    	; 0x15ae <UnityAssertBits+0x12a>
    1532:	8f 85       	ldd	r24, Y+15	; 0x0f
    1534:	98 89       	ldd	r25, Y+16	; 0x10
    1536:	a9 89       	ldd	r26, Y+17	; 0x11
    1538:	ba 89       	ldd	r27, Y+18	; 0x12
    153a:	bc 01       	movw	r22, r24
    153c:	cd 01       	movw	r24, r26
    153e:	0e 94 44 08 	call	0x1088	; 0x1088 <UnityTestResultsFailBegin>
    1542:	8c e1       	ldi	r24, 0x1C	; 28
    1544:	92 e0       	ldi	r25, 0x02	; 2
    1546:	0e 94 54 01 	call	0x2a8	; 0x2a8 <UnityPrint>
    154a:	2d 81       	ldd	r18, Y+5	; 0x05
    154c:	3e 81       	ldd	r19, Y+6	; 0x06
    154e:	4f 81       	ldd	r20, Y+7	; 0x07
    1550:	58 85       	ldd	r21, Y+8	; 0x08
    1552:	89 81       	ldd	r24, Y+1	; 0x01
    1554:	9a 81       	ldd	r25, Y+2	; 0x02
    1556:	ab 81       	ldd	r26, Y+3	; 0x03
    1558:	bc 81       	ldd	r27, Y+4	; 0x04
    155a:	bc 01       	movw	r22, r24
    155c:	cd 01       	movw	r24, r26
    155e:	0e 94 1b 04 	call	0x836	; 0x836 <UnityPrintMask>
    1562:	87 e2       	ldi	r24, 0x27	; 39
    1564:	92 e0       	ldi	r25, 0x02	; 2
    1566:	0e 94 54 01 	call	0x2a8	; 0x2a8 <UnityPrint>
    156a:	29 85       	ldd	r18, Y+9	; 0x09
    156c:	3a 85       	ldd	r19, Y+10	; 0x0a
    156e:	4b 85       	ldd	r20, Y+11	; 0x0b
    1570:	5c 85       	ldd	r21, Y+12	; 0x0c
    1572:	89 81       	ldd	r24, Y+1	; 0x01
    1574:	9a 81       	ldd	r25, Y+2	; 0x02
    1576:	ab 81       	ldd	r26, Y+3	; 0x03
    1578:	bc 81       	ldd	r27, Y+4	; 0x04
    157a:	bc 01       	movw	r22, r24
    157c:	cd 01       	movw	r24, r26
    157e:	0e 94 1b 04 	call	0x836	; 0x836 <UnityPrintMask>
    1582:	8d 85       	ldd	r24, Y+13	; 0x0d
    1584:	9e 85       	ldd	r25, Y+14	; 0x0e
    1586:	0e 94 e4 08 	call	0x11c8	; 0x11c8 <UnityAddMsgIfSpecified>
    158a:	81 e0       	ldi	r24, 0x01	; 1
    158c:	90 e0       	ldi	r25, 0x00	; 0
    158e:	a0 e0       	ldi	r26, 0x00	; 0
    1590:	b0 e0       	ldi	r27, 0x00	; 0
    1592:	80 93 08 04 	sts	0x0408, r24
    1596:	90 93 09 04 	sts	0x0409, r25
    159a:	a0 93 0a 04 	sts	0x040A, r26
    159e:	b0 93 0b 04 	sts	0x040B, r27
    15a2:	61 e0       	ldi	r22, 0x01	; 1
    15a4:	70 e0       	ldi	r23, 0x00	; 0
    15a6:	80 e1       	ldi	r24, 0x10	; 16
    15a8:	94 e0       	ldi	r25, 0x04	; 4
    15aa:	0e 94 03 1e 	call	0x3c06	; 0x3c06 <longjmp>
    15ae:	62 96       	adiw	r28, 0x12	; 18
    15b0:	0f b6       	in	r0, 0x3f	; 63
    15b2:	f8 94       	cli
    15b4:	de bf       	out	0x3e, r29	; 62
    15b6:	0f be       	out	0x3f, r0	; 63
    15b8:	cd bf       	out	0x3d, r28	; 61
    15ba:	df 91       	pop	r29
    15bc:	cf 91       	pop	r28
    15be:	1f 91       	pop	r17
    15c0:	0f 91       	pop	r16
    15c2:	ff 90       	pop	r15
    15c4:	ef 90       	pop	r14
    15c6:	df 90       	pop	r13
    15c8:	cf 90       	pop	r12
    15ca:	bf 90       	pop	r11
    15cc:	af 90       	pop	r10
    15ce:	9f 90       	pop	r9
    15d0:	8f 90       	pop	r8
    15d2:	08 95       	ret

000015d4 <UnityAssertEqualNumber>:
    15d4:	af 92       	push	r10
    15d6:	bf 92       	push	r11
    15d8:	cf 92       	push	r12
    15da:	df 92       	push	r13
    15dc:	ef 92       	push	r14
    15de:	ff 92       	push	r15
    15e0:	0f 93       	push	r16
    15e2:	1f 93       	push	r17
    15e4:	cf 93       	push	r28
    15e6:	df 93       	push	r29
    15e8:	cd b7       	in	r28, 0x3d	; 61
    15ea:	de b7       	in	r29, 0x3e	; 62
    15ec:	60 97       	sbiw	r28, 0x10	; 16
    15ee:	0f b6       	in	r0, 0x3f	; 63
    15f0:	f8 94       	cli
    15f2:	de bf       	out	0x3e, r29	; 62
    15f4:	0f be       	out	0x3f, r0	; 63
    15f6:	cd bf       	out	0x3d, r28	; 61
    15f8:	69 83       	std	Y+1, r22	; 0x01
    15fa:	7a 83       	std	Y+2, r23	; 0x02
    15fc:	8b 83       	std	Y+3, r24	; 0x03
    15fe:	9c 83       	std	Y+4, r25	; 0x04
    1600:	2d 83       	std	Y+5, r18	; 0x05
    1602:	3e 83       	std	Y+6, r19	; 0x06
    1604:	4f 83       	std	Y+7, r20	; 0x07
    1606:	58 87       	std	Y+8, r21	; 0x08
    1608:	1a 87       	std	Y+10, r17	; 0x0a
    160a:	09 87       	std	Y+9, r16	; 0x09
    160c:	cb 86       	std	Y+11, r12	; 0x0b
    160e:	dc 86       	std	Y+12, r13	; 0x0c
    1610:	ed 86       	std	Y+13, r14	; 0x0d
    1612:	fe 86       	std	Y+14, r15	; 0x0e
    1614:	b8 8a       	std	Y+16, r11	; 0x10
    1616:	af 86       	std	Y+15, r10	; 0x0f
    1618:	80 91 08 04 	lds	r24, 0x0408
    161c:	90 91 09 04 	lds	r25, 0x0409
    1620:	a0 91 0a 04 	lds	r26, 0x040A
    1624:	b0 91 0b 04 	lds	r27, 0x040B
    1628:	00 97       	sbiw	r24, 0x00	; 0
    162a:	a1 05       	cpc	r26, r1
    162c:	b1 05       	cpc	r27, r1
    162e:	61 f4       	brne	.+24     	; 0x1648 <UnityAssertEqualNumber+0x74>
    1630:	80 91 0c 04 	lds	r24, 0x040C
    1634:	90 91 0d 04 	lds	r25, 0x040D
    1638:	a0 91 0e 04 	lds	r26, 0x040E
    163c:	b0 91 0f 04 	lds	r27, 0x040F
    1640:	00 97       	sbiw	r24, 0x00	; 0
    1642:	a1 05       	cpc	r26, r1
    1644:	b1 05       	cpc	r27, r1
    1646:	09 f0       	breq	.+2      	; 0x164a <UnityAssertEqualNumber+0x76>
    1648:	49 c0       	rjmp	.+146    	; 0x16dc <UnityAssertEqualNumber+0x108>
    164a:	29 81       	ldd	r18, Y+1	; 0x01
    164c:	3a 81       	ldd	r19, Y+2	; 0x02
    164e:	4b 81       	ldd	r20, Y+3	; 0x03
    1650:	5c 81       	ldd	r21, Y+4	; 0x04
    1652:	8d 81       	ldd	r24, Y+5	; 0x05
    1654:	9e 81       	ldd	r25, Y+6	; 0x06
    1656:	af 81       	ldd	r26, Y+7	; 0x07
    1658:	b8 85       	ldd	r27, Y+8	; 0x08
    165a:	28 17       	cp	r18, r24
    165c:	39 07       	cpc	r19, r25
    165e:	4a 07       	cpc	r20, r26
    1660:	5b 07       	cpc	r21, r27
    1662:	e1 f1       	breq	.+120    	; 0x16dc <UnityAssertEqualNumber+0x108>
    1664:	8b 85       	ldd	r24, Y+11	; 0x0b
    1666:	9c 85       	ldd	r25, Y+12	; 0x0c
    1668:	ad 85       	ldd	r26, Y+13	; 0x0d
    166a:	be 85       	ldd	r27, Y+14	; 0x0e
    166c:	bc 01       	movw	r22, r24
    166e:	cd 01       	movw	r24, r26
    1670:	0e 94 44 08 	call	0x1088	; 0x1088 <UnityTestResultsFailBegin>
    1674:	8c e1       	ldi	r24, 0x1C	; 28
    1676:	92 e0       	ldi	r25, 0x02	; 2
    1678:	0e 94 54 01 	call	0x2a8	; 0x2a8 <UnityPrint>
    167c:	2f 85       	ldd	r18, Y+15	; 0x0f
    167e:	38 89       	ldd	r19, Y+16	; 0x10
    1680:	89 81       	ldd	r24, Y+1	; 0x01
    1682:	9a 81       	ldd	r25, Y+2	; 0x02
    1684:	ab 81       	ldd	r26, Y+3	; 0x03
    1686:	bc 81       	ldd	r27, Y+4	; 0x04
    1688:	a9 01       	movw	r20, r18
    168a:	bc 01       	movw	r22, r24
    168c:	cd 01       	movw	r24, r26
    168e:	0e 94 98 02 	call	0x530	; 0x530 <UnityPrintNumberByStyle>
    1692:	87 e2       	ldi	r24, 0x27	; 39
    1694:	92 e0       	ldi	r25, 0x02	; 2
    1696:	0e 94 54 01 	call	0x2a8	; 0x2a8 <UnityPrint>
    169a:	2f 85       	ldd	r18, Y+15	; 0x0f
    169c:	38 89       	ldd	r19, Y+16	; 0x10
    169e:	8d 81       	ldd	r24, Y+5	; 0x05
    16a0:	9e 81       	ldd	r25, Y+6	; 0x06
    16a2:	af 81       	ldd	r26, Y+7	; 0x07
    16a4:	b8 85       	ldd	r27, Y+8	; 0x08
    16a6:	a9 01       	movw	r20, r18
    16a8:	bc 01       	movw	r22, r24
    16aa:	cd 01       	movw	r24, r26
    16ac:	0e 94 98 02 	call	0x530	; 0x530 <UnityPrintNumberByStyle>
    16b0:	89 85       	ldd	r24, Y+9	; 0x09
    16b2:	9a 85       	ldd	r25, Y+10	; 0x0a
    16b4:	0e 94 e4 08 	call	0x11c8	; 0x11c8 <UnityAddMsgIfSpecified>
    16b8:	81 e0       	ldi	r24, 0x01	; 1
    16ba:	90 e0       	ldi	r25, 0x00	; 0
    16bc:	a0 e0       	ldi	r26, 0x00	; 0
    16be:	b0 e0       	ldi	r27, 0x00	; 0
    16c0:	80 93 08 04 	sts	0x0408, r24
    16c4:	90 93 09 04 	sts	0x0409, r25
    16c8:	a0 93 0a 04 	sts	0x040A, r26
    16cc:	b0 93 0b 04 	sts	0x040B, r27
    16d0:	61 e0       	ldi	r22, 0x01	; 1
    16d2:	70 e0       	ldi	r23, 0x00	; 0
    16d4:	80 e1       	ldi	r24, 0x10	; 16
    16d6:	94 e0       	ldi	r25, 0x04	; 4
    16d8:	0e 94 03 1e 	call	0x3c06	; 0x3c06 <longjmp>
    16dc:	60 96       	adiw	r28, 0x10	; 16
    16de:	0f b6       	in	r0, 0x3f	; 63
    16e0:	f8 94       	cli
    16e2:	de bf       	out	0x3e, r29	; 62
    16e4:	0f be       	out	0x3f, r0	; 63
    16e6:	cd bf       	out	0x3d, r28	; 61
    16e8:	df 91       	pop	r29
    16ea:	cf 91       	pop	r28
    16ec:	1f 91       	pop	r17
    16ee:	0f 91       	pop	r16
    16f0:	ff 90       	pop	r15
    16f2:	ef 90       	pop	r14
    16f4:	df 90       	pop	r13
    16f6:	cf 90       	pop	r12
    16f8:	bf 90       	pop	r11
    16fa:	af 90       	pop	r10
    16fc:	08 95       	ret

000016fe <UnityAssertEqualIntArray>:
    16fe:	8f 92       	push	r8
    1700:	9f 92       	push	r9
    1702:	af 92       	push	r10
    1704:	bf 92       	push	r11
    1706:	cf 92       	push	r12
    1708:	df 92       	push	r13
    170a:	ef 92       	push	r14
    170c:	ff 92       	push	r15
    170e:	0f 93       	push	r16
    1710:	1f 93       	push	r17
    1712:	cf 93       	push	r28
    1714:	df 93       	push	r29
    1716:	cd b7       	in	r28, 0x3d	; 61
    1718:	de b7       	in	r29, 0x3e	; 62
    171a:	a4 97       	sbiw	r28, 0x24	; 36
    171c:	0f b6       	in	r0, 0x3f	; 63
    171e:	f8 94       	cli
    1720:	de bf       	out	0x3e, r29	; 62
    1722:	0f be       	out	0x3f, r0	; 63
    1724:	cd bf       	out	0x3d, r28	; 61
    1726:	9c 8b       	std	Y+20, r25	; 0x14
    1728:	8b 8b       	std	Y+19, r24	; 0x13
    172a:	7e 8b       	std	Y+22, r23	; 0x16
    172c:	6d 8b       	std	Y+21, r22	; 0x15
    172e:	2f 8b       	std	Y+23, r18	; 0x17
    1730:	38 8f       	std	Y+24, r19	; 0x18
    1732:	49 8f       	std	Y+25, r20	; 0x19
    1734:	5a 8f       	std	Y+26, r21	; 0x1a
    1736:	1c 8f       	std	Y+28, r17	; 0x1c
    1738:	0b 8f       	std	Y+27, r16	; 0x1b
    173a:	cd 8e       	std	Y+29, r12	; 0x1d
    173c:	de 8e       	std	Y+30, r13	; 0x1e
    173e:	ef 8e       	std	Y+31, r14	; 0x1f
    1740:	f8 a2       	std	Y+32, r15	; 0x20
    1742:	ba a2       	std	Y+34, r11	; 0x22
    1744:	a9 a2       	std	Y+33, r10	; 0x21
    1746:	9c a2       	std	Y+36, r9	; 0x24
    1748:	8b a2       	std	Y+35, r8	; 0x23
    174a:	8f 89       	ldd	r24, Y+23	; 0x17
    174c:	98 8d       	ldd	r25, Y+24	; 0x18
    174e:	a9 8d       	ldd	r26, Y+25	; 0x19
    1750:	ba 8d       	ldd	r27, Y+26	; 0x1a
    1752:	89 83       	std	Y+1, r24	; 0x01
    1754:	9a 83       	std	Y+2, r25	; 0x02
    1756:	ab 83       	std	Y+3, r26	; 0x03
    1758:	bc 83       	std	Y+4, r27	; 0x04
    175a:	89 a1       	ldd	r24, Y+33	; 0x21
    175c:	9a a1       	ldd	r25, Y+34	; 0x22
    175e:	8f 70       	andi	r24, 0x0F	; 15
    1760:	99 27       	eor	r25, r25
    1762:	9e 83       	std	Y+6, r25	; 0x06
    1764:	8d 83       	std	Y+5, r24	; 0x05
    1766:	80 91 08 04 	lds	r24, 0x0408
    176a:	90 91 09 04 	lds	r25, 0x0409
    176e:	a0 91 0a 04 	lds	r26, 0x040A
    1772:	b0 91 0b 04 	lds	r27, 0x040B
    1776:	00 97       	sbiw	r24, 0x00	; 0
    1778:	a1 05       	cpc	r26, r1
    177a:	b1 05       	cpc	r27, r1
    177c:	61 f4       	brne	.+24     	; 0x1796 <UnityAssertEqualIntArray+0x98>
    177e:	80 91 0c 04 	lds	r24, 0x040C
    1782:	90 91 0d 04 	lds	r25, 0x040D
    1786:	a0 91 0e 04 	lds	r26, 0x040E
    178a:	b0 91 0f 04 	lds	r27, 0x040F
    178e:	00 97       	sbiw	r24, 0x00	; 0
    1790:	a1 05       	cpc	r26, r1
    1792:	b1 05       	cpc	r27, r1
    1794:	09 f0       	breq	.+2      	; 0x1798 <UnityAssertEqualIntArray+0x9a>
    1796:	8e c1       	rjmp	.+796    	; 0x1ab4 <UnityAssertEqualIntArray+0x3b6>
    1798:	8f 89       	ldd	r24, Y+23	; 0x17
    179a:	98 8d       	ldd	r25, Y+24	; 0x18
    179c:	a9 8d       	ldd	r26, Y+25	; 0x19
    179e:	ba 8d       	ldd	r27, Y+26	; 0x1a
    17a0:	00 97       	sbiw	r24, 0x00	; 0
    17a2:	a1 05       	cpc	r26, r1
    17a4:	b1 05       	cpc	r27, r1
    17a6:	11 f5       	brne	.+68     	; 0x17ec <UnityAssertEqualIntArray+0xee>
    17a8:	8d 8d       	ldd	r24, Y+29	; 0x1d
    17aa:	9e 8d       	ldd	r25, Y+30	; 0x1e
    17ac:	af 8d       	ldd	r26, Y+31	; 0x1f
    17ae:	b8 a1       	ldd	r27, Y+32	; 0x20
    17b0:	bc 01       	movw	r22, r24
    17b2:	cd 01       	movw	r24, r26
    17b4:	0e 94 44 08 	call	0x1088	; 0x1088 <UnityTestResultsFailBegin>
    17b8:	8a e6       	ldi	r24, 0x6A	; 106
    17ba:	92 e0       	ldi	r25, 0x02	; 2
    17bc:	0e 94 54 01 	call	0x2a8	; 0x2a8 <UnityPrint>
    17c0:	8b 8d       	ldd	r24, Y+27	; 0x1b
    17c2:	9c 8d       	ldd	r25, Y+28	; 0x1c
    17c4:	0e 94 e4 08 	call	0x11c8	; 0x11c8 <UnityAddMsgIfSpecified>
    17c8:	81 e0       	ldi	r24, 0x01	; 1
    17ca:	90 e0       	ldi	r25, 0x00	; 0
    17cc:	a0 e0       	ldi	r26, 0x00	; 0
    17ce:	b0 e0       	ldi	r27, 0x00	; 0
    17d0:	80 93 08 04 	sts	0x0408, r24
    17d4:	90 93 09 04 	sts	0x0409, r25
    17d8:	a0 93 0a 04 	sts	0x040A, r26
    17dc:	b0 93 0b 04 	sts	0x040B, r27
    17e0:	61 e0       	ldi	r22, 0x01	; 1
    17e2:	70 e0       	ldi	r23, 0x00	; 0
    17e4:	80 e1       	ldi	r24, 0x10	; 16
    17e6:	94 e0       	ldi	r25, 0x04	; 4
    17e8:	0e 94 03 1e 	call	0x3c06	; 0x3c06 <longjmp>
    17ec:	2b 89       	ldd	r18, Y+19	; 0x13
    17ee:	3c 89       	ldd	r19, Y+20	; 0x14
    17f0:	8d 89       	ldd	r24, Y+21	; 0x15
    17f2:	9e 89       	ldd	r25, Y+22	; 0x16
    17f4:	28 17       	cp	r18, r24
    17f6:	39 07       	cpc	r19, r25
    17f8:	09 f4       	brne	.+2      	; 0x17fc <UnityAssertEqualIntArray+0xfe>
    17fa:	5c c1       	rjmp	.+696    	; 0x1ab4 <UnityAssertEqualIntArray+0x3b6>
    17fc:	2b 8d       	ldd	r18, Y+27	; 0x1b
    17fe:	3c 8d       	ldd	r19, Y+28	; 0x1c
    1800:	8d 8d       	ldd	r24, Y+29	; 0x1d
    1802:	9e 8d       	ldd	r25, Y+30	; 0x1e
    1804:	af 8d       	ldd	r26, Y+31	; 0x1f
    1806:	b8 a1       	ldd	r27, Y+32	; 0x20
    1808:	6d 89       	ldd	r22, Y+21	; 0x15
    180a:	7e 89       	ldd	r23, Y+22	; 0x16
    180c:	eb 89       	ldd	r30, Y+19	; 0x13
    180e:	fc 89       	ldd	r31, Y+20	; 0x14
    1810:	89 01       	movw	r16, r18
    1812:	9c 01       	movw	r18, r24
    1814:	ad 01       	movw	r20, r26
    1816:	cf 01       	movw	r24, r30
    1818:	0e 94 e7 09 	call	0x13ce	; 0x13ce <UnityIsOneArrayNull>
    181c:	00 97       	sbiw	r24, 0x00	; 0
    181e:	91 f0       	breq	.+36     	; 0x1844 <UnityAssertEqualIntArray+0x146>
    1820:	81 e0       	ldi	r24, 0x01	; 1
    1822:	90 e0       	ldi	r25, 0x00	; 0
    1824:	a0 e0       	ldi	r26, 0x00	; 0
    1826:	b0 e0       	ldi	r27, 0x00	; 0
    1828:	80 93 08 04 	sts	0x0408, r24
    182c:	90 93 09 04 	sts	0x0409, r25
    1830:	a0 93 0a 04 	sts	0x040A, r26
    1834:	b0 93 0b 04 	sts	0x040B, r27
    1838:	61 e0       	ldi	r22, 0x01	; 1
    183a:	70 e0       	ldi	r23, 0x00	; 0
    183c:	80 e1       	ldi	r24, 0x10	; 16
    183e:	94 e0       	ldi	r25, 0x04	; 4
    1840:	0e 94 03 1e 	call	0x3c06	; 0x3c06 <longjmp>
    1844:	24 c1       	rjmp	.+584    	; 0x1a8e <UnityAssertEqualIntArray+0x390>
    1846:	8d 81       	ldd	r24, Y+5	; 0x05
    1848:	9e 81       	ldd	r25, Y+6	; 0x06
    184a:	81 30       	cpi	r24, 0x01	; 1
    184c:	91 05       	cpc	r25, r1
    184e:	21 f0       	breq	.+8      	; 0x1858 <UnityAssertEqualIntArray+0x15a>
    1850:	82 30       	cpi	r24, 0x02	; 2
    1852:	91 05       	cpc	r25, r1
    1854:	e1 f0       	breq	.+56     	; 0x188e <UnityAssertEqualIntArray+0x190>
    1856:	36 c0       	rjmp	.+108    	; 0x18c4 <UnityAssertEqualIntArray+0x1c6>
    1858:	8b 89       	ldd	r24, Y+19	; 0x13
    185a:	9c 89       	ldd	r25, Y+20	; 0x14
    185c:	fc 01       	movw	r30, r24
    185e:	80 81       	ld	r24, Z
    1860:	99 27       	eor	r25, r25
    1862:	87 fd       	sbrc	r24, 7
    1864:	90 95       	com	r25
    1866:	a9 2f       	mov	r26, r25
    1868:	b9 2f       	mov	r27, r25
    186a:	8f 83       	std	Y+7, r24	; 0x07
    186c:	98 87       	std	Y+8, r25	; 0x08
    186e:	a9 87       	std	Y+9, r26	; 0x09
    1870:	ba 87       	std	Y+10, r27	; 0x0a
    1872:	8d 89       	ldd	r24, Y+21	; 0x15
    1874:	9e 89       	ldd	r25, Y+22	; 0x16
    1876:	fc 01       	movw	r30, r24
    1878:	80 81       	ld	r24, Z
    187a:	99 27       	eor	r25, r25
    187c:	87 fd       	sbrc	r24, 7
    187e:	90 95       	com	r25
    1880:	a9 2f       	mov	r26, r25
    1882:	b9 2f       	mov	r27, r25
    1884:	8b 87       	std	Y+11, r24	; 0x0b
    1886:	9c 87       	std	Y+12, r25	; 0x0c
    1888:	ad 87       	std	Y+13, r26	; 0x0d
    188a:	be 87       	std	Y+14, r27	; 0x0e
    188c:	36 c0       	rjmp	.+108    	; 0x18fa <UnityAssertEqualIntArray+0x1fc>
    188e:	8b 89       	ldd	r24, Y+19	; 0x13
    1890:	9c 89       	ldd	r25, Y+20	; 0x14
    1892:	fc 01       	movw	r30, r24
    1894:	80 81       	ld	r24, Z
    1896:	91 81       	ldd	r25, Z+1	; 0x01
    1898:	aa 27       	eor	r26, r26
    189a:	97 fd       	sbrc	r25, 7
    189c:	a0 95       	com	r26
    189e:	ba 2f       	mov	r27, r26
    18a0:	8f 83       	std	Y+7, r24	; 0x07
    18a2:	98 87       	std	Y+8, r25	; 0x08
    18a4:	a9 87       	std	Y+9, r26	; 0x09
    18a6:	ba 87       	std	Y+10, r27	; 0x0a
    18a8:	8d 89       	ldd	r24, Y+21	; 0x15
    18aa:	9e 89       	ldd	r25, Y+22	; 0x16
    18ac:	fc 01       	movw	r30, r24
    18ae:	80 81       	ld	r24, Z
    18b0:	91 81       	ldd	r25, Z+1	; 0x01
    18b2:	aa 27       	eor	r26, r26
    18b4:	97 fd       	sbrc	r25, 7
    18b6:	a0 95       	com	r26
    18b8:	ba 2f       	mov	r27, r26
    18ba:	8b 87       	std	Y+11, r24	; 0x0b
    18bc:	9c 87       	std	Y+12, r25	; 0x0c
    18be:	ad 87       	std	Y+13, r26	; 0x0d
    18c0:	be 87       	std	Y+14, r27	; 0x0e
    18c2:	1b c0       	rjmp	.+54     	; 0x18fa <UnityAssertEqualIntArray+0x1fc>
    18c4:	8b 89       	ldd	r24, Y+19	; 0x13
    18c6:	9c 89       	ldd	r25, Y+20	; 0x14
    18c8:	fc 01       	movw	r30, r24
    18ca:	80 81       	ld	r24, Z
    18cc:	91 81       	ldd	r25, Z+1	; 0x01
    18ce:	a2 81       	ldd	r26, Z+2	; 0x02
    18d0:	b3 81       	ldd	r27, Z+3	; 0x03
    18d2:	8f 83       	std	Y+7, r24	; 0x07
    18d4:	98 87       	std	Y+8, r25	; 0x08
    18d6:	a9 87       	std	Y+9, r26	; 0x09
    18d8:	ba 87       	std	Y+10, r27	; 0x0a
    18da:	8d 89       	ldd	r24, Y+21	; 0x15
    18dc:	9e 89       	ldd	r25, Y+22	; 0x16
    18de:	fc 01       	movw	r30, r24
    18e0:	80 81       	ld	r24, Z
    18e2:	91 81       	ldd	r25, Z+1	; 0x01
    18e4:	a2 81       	ldd	r26, Z+2	; 0x02
    18e6:	b3 81       	ldd	r27, Z+3	; 0x03
    18e8:	8b 87       	std	Y+11, r24	; 0x0b
    18ea:	9c 87       	std	Y+12, r25	; 0x0c
    18ec:	ad 87       	std	Y+13, r26	; 0x0d
    18ee:	be 87       	std	Y+14, r27	; 0x0e
    18f0:	84 e0       	ldi	r24, 0x04	; 4
    18f2:	90 e0       	ldi	r25, 0x00	; 0
    18f4:	9e 83       	std	Y+6, r25	; 0x06
    18f6:	8d 83       	std	Y+5, r24	; 0x05
    18f8:	00 00       	nop
    18fa:	2f 81       	ldd	r18, Y+7	; 0x07
    18fc:	38 85       	ldd	r19, Y+8	; 0x08
    18fe:	49 85       	ldd	r20, Y+9	; 0x09
    1900:	5a 85       	ldd	r21, Y+10	; 0x0a
    1902:	8b 85       	ldd	r24, Y+11	; 0x0b
    1904:	9c 85       	ldd	r25, Y+12	; 0x0c
    1906:	ad 85       	ldd	r26, Y+13	; 0x0d
    1908:	be 85       	ldd	r27, Y+14	; 0x0e
    190a:	28 17       	cp	r18, r24
    190c:	39 07       	cpc	r19, r25
    190e:	4a 07       	cpc	r20, r26
    1910:	5b 07       	cpc	r21, r27
    1912:	09 f4       	brne	.+2      	; 0x1916 <UnityAssertEqualIntArray+0x218>
    1914:	a7 c0       	rjmp	.+334    	; 0x1a64 <UnityAssertEqualIntArray+0x366>
    1916:	89 a1       	ldd	r24, Y+33	; 0x21
    1918:	9a a1       	ldd	r25, Y+34	; 0x22
    191a:	80 72       	andi	r24, 0x20	; 32
    191c:	99 27       	eor	r25, r25
    191e:	00 97       	sbiw	r24, 0x00	; 0
    1920:	09 f4       	brne	.+2      	; 0x1924 <UnityAssertEqualIntArray+0x226>
    1922:	49 c0       	rjmp	.+146    	; 0x19b6 <UnityAssertEqualIntArray+0x2b8>
    1924:	8d 81       	ldd	r24, Y+5	; 0x05
    1926:	9e 81       	ldd	r25, Y+6	; 0x06
    1928:	84 30       	cpi	r24, 0x04	; 4
    192a:	91 05       	cpc	r25, r1
    192c:	08 f0       	brcs	.+2      	; 0x1930 <UnityAssertEqualIntArray+0x232>
    192e:	43 c0       	rjmp	.+134    	; 0x19b6 <UnityAssertEqualIntArray+0x2b8>
    1930:	81 e0       	ldi	r24, 0x01	; 1
    1932:	90 e0       	ldi	r25, 0x00	; 0
    1934:	a0 e0       	ldi	r26, 0x00	; 0
    1936:	b0 e0       	ldi	r27, 0x00	; 0
    1938:	8f 87       	std	Y+15, r24	; 0x0f
    193a:	98 8b       	std	Y+16, r25	; 0x10
    193c:	a9 8b       	std	Y+17, r26	; 0x11
    193e:	ba 8b       	std	Y+18, r27	; 0x12
    1940:	8d 81       	ldd	r24, Y+5	; 0x05
    1942:	9e 81       	ldd	r25, Y+6	; 0x06
    1944:	88 0f       	add	r24, r24
    1946:	99 1f       	adc	r25, r25
    1948:	88 0f       	add	r24, r24
    194a:	99 1f       	adc	r25, r25
    194c:	88 0f       	add	r24, r24
    194e:	99 1f       	adc	r25, r25
    1950:	9c 01       	movw	r18, r24
    1952:	8f 85       	ldd	r24, Y+15	; 0x0f
    1954:	98 89       	ldd	r25, Y+16	; 0x10
    1956:	a9 89       	ldd	r26, Y+17	; 0x11
    1958:	ba 89       	ldd	r27, Y+18	; 0x12
    195a:	04 c0       	rjmp	.+8      	; 0x1964 <UnityAssertEqualIntArray+0x266>
    195c:	88 0f       	add	r24, r24
    195e:	99 1f       	adc	r25, r25
    1960:	aa 1f       	adc	r26, r26
    1962:	bb 1f       	adc	r27, r27
    1964:	2a 95       	dec	r18
    1966:	d2 f7       	brpl	.-12     	; 0x195c <UnityAssertEqualIntArray+0x25e>
    1968:	01 97       	sbiw	r24, 0x01	; 1
    196a:	a1 09       	sbc	r26, r1
    196c:	b1 09       	sbc	r27, r1
    196e:	8f 87       	std	Y+15, r24	; 0x0f
    1970:	98 8b       	std	Y+16, r25	; 0x10
    1972:	a9 8b       	std	Y+17, r26	; 0x11
    1974:	ba 8b       	std	Y+18, r27	; 0x12
    1976:	2f 81       	ldd	r18, Y+7	; 0x07
    1978:	38 85       	ldd	r19, Y+8	; 0x08
    197a:	49 85       	ldd	r20, Y+9	; 0x09
    197c:	5a 85       	ldd	r21, Y+10	; 0x0a
    197e:	8f 85       	ldd	r24, Y+15	; 0x0f
    1980:	98 89       	ldd	r25, Y+16	; 0x10
    1982:	a9 89       	ldd	r26, Y+17	; 0x11
    1984:	ba 89       	ldd	r27, Y+18	; 0x12
    1986:	82 23       	and	r24, r18
    1988:	93 23       	and	r25, r19
    198a:	a4 23       	and	r26, r20
    198c:	b5 23       	and	r27, r21
    198e:	8f 83       	std	Y+7, r24	; 0x07
    1990:	98 87       	std	Y+8, r25	; 0x08
    1992:	a9 87       	std	Y+9, r26	; 0x09
    1994:	ba 87       	std	Y+10, r27	; 0x0a
    1996:	2b 85       	ldd	r18, Y+11	; 0x0b
    1998:	3c 85       	ldd	r19, Y+12	; 0x0c
    199a:	4d 85       	ldd	r20, Y+13	; 0x0d
    199c:	5e 85       	ldd	r21, Y+14	; 0x0e
    199e:	8f 85       	ldd	r24, Y+15	; 0x0f
    19a0:	98 89       	ldd	r25, Y+16	; 0x10
    19a2:	a9 89       	ldd	r26, Y+17	; 0x11
    19a4:	ba 89       	ldd	r27, Y+18	; 0x12
    19a6:	82 23       	and	r24, r18
    19a8:	93 23       	and	r25, r19
    19aa:	a4 23       	and	r26, r20
    19ac:	b5 23       	and	r27, r21
    19ae:	8b 87       	std	Y+11, r24	; 0x0b
    19b0:	9c 87       	std	Y+12, r25	; 0x0c
    19b2:	ad 87       	std	Y+13, r26	; 0x0d
    19b4:	be 87       	std	Y+14, r27	; 0x0e
    19b6:	8d 8d       	ldd	r24, Y+29	; 0x1d
    19b8:	9e 8d       	ldd	r25, Y+30	; 0x1e
    19ba:	af 8d       	ldd	r26, Y+31	; 0x1f
    19bc:	b8 a1       	ldd	r27, Y+32	; 0x20
    19be:	bc 01       	movw	r22, r24
    19c0:	cd 01       	movw	r24, r26
    19c2:	0e 94 44 08 	call	0x1088	; 0x1088 <UnityTestResultsFailBegin>
    19c6:	8d e2       	ldi	r24, 0x2D	; 45
    19c8:	92 e0       	ldi	r25, 0x02	; 2
    19ca:	0e 94 54 01 	call	0x2a8	; 0x2a8 <UnityPrint>
    19ce:	2f 89       	ldd	r18, Y+23	; 0x17
    19d0:	38 8d       	ldd	r19, Y+24	; 0x18
    19d2:	49 8d       	ldd	r20, Y+25	; 0x19
    19d4:	5a 8d       	ldd	r21, Y+26	; 0x1a
    19d6:	89 81       	ldd	r24, Y+1	; 0x01
    19d8:	9a 81       	ldd	r25, Y+2	; 0x02
    19da:	ab 81       	ldd	r26, Y+3	; 0x03
    19dc:	bc 81       	ldd	r27, Y+4	; 0x04
    19de:	79 01       	movw	r14, r18
    19e0:	8a 01       	movw	r16, r20
    19e2:	e8 1a       	sub	r14, r24
    19e4:	f9 0a       	sbc	r15, r25
    19e6:	0a 0b       	sbc	r16, r26
    19e8:	1b 0b       	sbc	r17, r27
    19ea:	d8 01       	movw	r26, r16
    19ec:	c7 01       	movw	r24, r14
    19ee:	01 97       	sbiw	r24, 0x01	; 1
    19f0:	a1 09       	sbc	r26, r1
    19f2:	b1 09       	sbc	r27, r1
    19f4:	bc 01       	movw	r22, r24
    19f6:	cd 01       	movw	r24, r26
    19f8:	0e 94 2f 03 	call	0x65e	; 0x65e <UnityPrintNumberUnsigned>
    19fc:	8c e1       	ldi	r24, 0x1C	; 28
    19fe:	92 e0       	ldi	r25, 0x02	; 2
    1a00:	0e 94 54 01 	call	0x2a8	; 0x2a8 <UnityPrint>
    1a04:	29 a1       	ldd	r18, Y+33	; 0x21
    1a06:	3a a1       	ldd	r19, Y+34	; 0x22
    1a08:	8f 81       	ldd	r24, Y+7	; 0x07
    1a0a:	98 85       	ldd	r25, Y+8	; 0x08
    1a0c:	a9 85       	ldd	r26, Y+9	; 0x09
    1a0e:	ba 85       	ldd	r27, Y+10	; 0x0a
    1a10:	a9 01       	movw	r20, r18
    1a12:	bc 01       	movw	r22, r24
    1a14:	cd 01       	movw	r24, r26
    1a16:	0e 94 98 02 	call	0x530	; 0x530 <UnityPrintNumberByStyle>
    1a1a:	87 e2       	ldi	r24, 0x27	; 39
    1a1c:	92 e0       	ldi	r25, 0x02	; 2
    1a1e:	0e 94 54 01 	call	0x2a8	; 0x2a8 <UnityPrint>
    1a22:	29 a1       	ldd	r18, Y+33	; 0x21
    1a24:	3a a1       	ldd	r19, Y+34	; 0x22
    1a26:	8b 85       	ldd	r24, Y+11	; 0x0b
    1a28:	9c 85       	ldd	r25, Y+12	; 0x0c
    1a2a:	ad 85       	ldd	r26, Y+13	; 0x0d
    1a2c:	be 85       	ldd	r27, Y+14	; 0x0e
    1a2e:	a9 01       	movw	r20, r18
    1a30:	bc 01       	movw	r22, r24
    1a32:	cd 01       	movw	r24, r26
    1a34:	0e 94 98 02 	call	0x530	; 0x530 <UnityPrintNumberByStyle>
    1a38:	8b 8d       	ldd	r24, Y+27	; 0x1b
    1a3a:	9c 8d       	ldd	r25, Y+28	; 0x1c
    1a3c:	0e 94 e4 08 	call	0x11c8	; 0x11c8 <UnityAddMsgIfSpecified>
    1a40:	81 e0       	ldi	r24, 0x01	; 1
    1a42:	90 e0       	ldi	r25, 0x00	; 0
    1a44:	a0 e0       	ldi	r26, 0x00	; 0
    1a46:	b0 e0       	ldi	r27, 0x00	; 0
    1a48:	80 93 08 04 	sts	0x0408, r24
    1a4c:	90 93 09 04 	sts	0x0409, r25
    1a50:	a0 93 0a 04 	sts	0x040A, r26
    1a54:	b0 93 0b 04 	sts	0x040B, r27
    1a58:	61 e0       	ldi	r22, 0x01	; 1
    1a5a:	70 e0       	ldi	r23, 0x00	; 0
    1a5c:	80 e1       	ldi	r24, 0x10	; 16
    1a5e:	94 e0       	ldi	r25, 0x04	; 4
    1a60:	0e 94 03 1e 	call	0x3c06	; 0x3c06 <longjmp>
    1a64:	8b a1       	ldd	r24, Y+35	; 0x23
    1a66:	9c a1       	ldd	r25, Y+36	; 0x24
    1a68:	81 30       	cpi	r24, 0x01	; 1
    1a6a:	91 05       	cpc	r25, r1
    1a6c:	41 f4       	brne	.+16     	; 0x1a7e <UnityAssertEqualIntArray+0x380>
    1a6e:	2b 89       	ldd	r18, Y+19	; 0x13
    1a70:	3c 89       	ldd	r19, Y+20	; 0x14
    1a72:	8d 81       	ldd	r24, Y+5	; 0x05
    1a74:	9e 81       	ldd	r25, Y+6	; 0x06
    1a76:	82 0f       	add	r24, r18
    1a78:	93 1f       	adc	r25, r19
    1a7a:	9c 8b       	std	Y+20, r25	; 0x14
    1a7c:	8b 8b       	std	Y+19, r24	; 0x13
    1a7e:	2d 89       	ldd	r18, Y+21	; 0x15
    1a80:	3e 89       	ldd	r19, Y+22	; 0x16
    1a82:	8d 81       	ldd	r24, Y+5	; 0x05
    1a84:	9e 81       	ldd	r25, Y+6	; 0x06
    1a86:	82 0f       	add	r24, r18
    1a88:	93 1f       	adc	r25, r19
    1a8a:	9e 8b       	std	Y+22, r25	; 0x16
    1a8c:	8d 8b       	std	Y+21, r24	; 0x15
    1a8e:	89 81       	ldd	r24, Y+1	; 0x01
    1a90:	9a 81       	ldd	r25, Y+2	; 0x02
    1a92:	ab 81       	ldd	r26, Y+3	; 0x03
    1a94:	bc 81       	ldd	r27, Y+4	; 0x04
    1a96:	9c 01       	movw	r18, r24
    1a98:	ad 01       	movw	r20, r26
    1a9a:	21 50       	subi	r18, 0x01	; 1
    1a9c:	31 09       	sbc	r19, r1
    1a9e:	41 09       	sbc	r20, r1
    1aa0:	51 09       	sbc	r21, r1
    1aa2:	29 83       	std	Y+1, r18	; 0x01
    1aa4:	3a 83       	std	Y+2, r19	; 0x02
    1aa6:	4b 83       	std	Y+3, r20	; 0x03
    1aa8:	5c 83       	std	Y+4, r21	; 0x04
    1aaa:	00 97       	sbiw	r24, 0x00	; 0
    1aac:	a1 05       	cpc	r26, r1
    1aae:	b1 05       	cpc	r27, r1
    1ab0:	09 f0       	breq	.+2      	; 0x1ab4 <UnityAssertEqualIntArray+0x3b6>
    1ab2:	c9 ce       	rjmp	.-622    	; 0x1846 <UnityAssertEqualIntArray+0x148>
    1ab4:	a4 96       	adiw	r28, 0x24	; 36
    1ab6:	0f b6       	in	r0, 0x3f	; 63
    1ab8:	f8 94       	cli
    1aba:	de bf       	out	0x3e, r29	; 62
    1abc:	0f be       	out	0x3f, r0	; 63
    1abe:	cd bf       	out	0x3d, r28	; 61
    1ac0:	df 91       	pop	r29
    1ac2:	cf 91       	pop	r28
    1ac4:	1f 91       	pop	r17
    1ac6:	0f 91       	pop	r16
    1ac8:	ff 90       	pop	r15
    1aca:	ef 90       	pop	r14
    1acc:	df 90       	pop	r13
    1ace:	cf 90       	pop	r12
    1ad0:	bf 90       	pop	r11
    1ad2:	af 90       	pop	r10
    1ad4:	9f 90       	pop	r9
    1ad6:	8f 90       	pop	r8
    1ad8:	08 95       	ret

00001ada <UnityFloatsWithin>:
    1ada:	cf 92       	push	r12
    1adc:	df 92       	push	r13
    1ade:	ef 92       	push	r14
    1ae0:	ff 92       	push	r15
    1ae2:	0f 93       	push	r16
    1ae4:	1f 93       	push	r17
    1ae6:	cf 93       	push	r28
    1ae8:	df 93       	push	r29
    1aea:	cd b7       	in	r28, 0x3d	; 61
    1aec:	de b7       	in	r29, 0x3e	; 62
    1aee:	60 97       	sbiw	r28, 0x10	; 16
    1af0:	0f b6       	in	r0, 0x3f	; 63
    1af2:	f8 94       	cli
    1af4:	de bf       	out	0x3e, r29	; 62
    1af6:	0f be       	out	0x3f, r0	; 63
    1af8:	cd bf       	out	0x3d, r28	; 61
    1afa:	6d 83       	std	Y+5, r22	; 0x05
    1afc:	7e 83       	std	Y+6, r23	; 0x06
    1afe:	8f 83       	std	Y+7, r24	; 0x07
    1b00:	98 87       	std	Y+8, r25	; 0x08
    1b02:	29 87       	std	Y+9, r18	; 0x09
    1b04:	3a 87       	std	Y+10, r19	; 0x0a
    1b06:	4b 87       	std	Y+11, r20	; 0x0b
    1b08:	5c 87       	std	Y+12, r21	; 0x0c
    1b0a:	ed 86       	std	Y+13, r14	; 0x0d
    1b0c:	fe 86       	std	Y+14, r15	; 0x0e
    1b0e:	0f 87       	std	Y+15, r16	; 0x0f
    1b10:	18 8b       	std	Y+16, r17	; 0x10
    1b12:	29 85       	ldd	r18, Y+9	; 0x09
    1b14:	3a 85       	ldd	r19, Y+10	; 0x0a
    1b16:	4b 85       	ldd	r20, Y+11	; 0x0b
    1b18:	5c 85       	ldd	r21, Y+12	; 0x0c
    1b1a:	69 85       	ldd	r22, Y+9	; 0x09
    1b1c:	7a 85       	ldd	r23, Y+10	; 0x0a
    1b1e:	8b 85       	ldd	r24, Y+11	; 0x0b
    1b20:	9c 85       	ldd	r25, Y+12	; 0x0c
    1b22:	0e 94 c6 1b 	call	0x378c	; 0x378c <__subsf3>
    1b26:	dc 01       	movw	r26, r24
    1b28:	cb 01       	movw	r24, r22
    1b2a:	6c 01       	movw	r12, r24
    1b2c:	7d 01       	movw	r14, r26
    1b2e:	29 85       	ldd	r18, Y+9	; 0x09
    1b30:	3a 85       	ldd	r19, Y+10	; 0x0a
    1b32:	4b 85       	ldd	r20, Y+11	; 0x0b
    1b34:	5c 85       	ldd	r21, Y+12	; 0x0c
    1b36:	69 85       	ldd	r22, Y+9	; 0x09
    1b38:	7a 85       	ldd	r23, Y+10	; 0x0a
    1b3a:	8b 85       	ldd	r24, Y+11	; 0x0b
    1b3c:	9c 85       	ldd	r25, Y+12	; 0x0c
    1b3e:	0e 94 c6 1b 	call	0x378c	; 0x378c <__subsf3>
    1b42:	dc 01       	movw	r26, r24
    1b44:	cb 01       	movw	r24, r22
    1b46:	9c 01       	movw	r18, r24
    1b48:	ad 01       	movw	r20, r26
    1b4a:	c7 01       	movw	r24, r14
    1b4c:	b6 01       	movw	r22, r12
    1b4e:	0e 94 2b 1c 	call	0x3856	; 0x3856 <__cmpsf2>
    1b52:	88 23       	and	r24, r24
    1b54:	09 f4       	brne	.+2      	; 0x1b58 <UnityFloatsWithin+0x7e>
    1b56:	5f c0       	rjmp	.+190    	; 0x1c16 <UnityFloatsWithin+0x13c>
    1b58:	29 85       	ldd	r18, Y+9	; 0x09
    1b5a:	3a 85       	ldd	r19, Y+10	; 0x0a
    1b5c:	4b 85       	ldd	r20, Y+11	; 0x0b
    1b5e:	5c 85       	ldd	r21, Y+12	; 0x0c
    1b60:	69 85       	ldd	r22, Y+9	; 0x09
    1b62:	7a 85       	ldd	r23, Y+10	; 0x0a
    1b64:	8b 85       	ldd	r24, Y+11	; 0x0b
    1b66:	9c 85       	ldd	r25, Y+12	; 0x0c
    1b68:	0e 94 2b 1c 	call	0x3856	; 0x3856 <__cmpsf2>
    1b6c:	88 23       	and	r24, r24
    1b6e:	09 f0       	breq	.+2      	; 0x1b72 <UnityFloatsWithin+0x98>
    1b70:	52 c0       	rjmp	.+164    	; 0x1c16 <UnityFloatsWithin+0x13c>
    1b72:	2d 85       	ldd	r18, Y+13	; 0x0d
    1b74:	3e 85       	ldd	r19, Y+14	; 0x0e
    1b76:	4f 85       	ldd	r20, Y+15	; 0x0f
    1b78:	58 89       	ldd	r21, Y+16	; 0x10
    1b7a:	6d 85       	ldd	r22, Y+13	; 0x0d
    1b7c:	7e 85       	ldd	r23, Y+14	; 0x0e
    1b7e:	8f 85       	ldd	r24, Y+15	; 0x0f
    1b80:	98 89       	ldd	r25, Y+16	; 0x10
    1b82:	0e 94 c6 1b 	call	0x378c	; 0x378c <__subsf3>
    1b86:	dc 01       	movw	r26, r24
    1b88:	cb 01       	movw	r24, r22
    1b8a:	6c 01       	movw	r12, r24
    1b8c:	7d 01       	movw	r14, r26
    1b8e:	2d 85       	ldd	r18, Y+13	; 0x0d
    1b90:	3e 85       	ldd	r19, Y+14	; 0x0e
    1b92:	4f 85       	ldd	r20, Y+15	; 0x0f
    1b94:	58 89       	ldd	r21, Y+16	; 0x10
    1b96:	6d 85       	ldd	r22, Y+13	; 0x0d
    1b98:	7e 85       	ldd	r23, Y+14	; 0x0e
    1b9a:	8f 85       	ldd	r24, Y+15	; 0x0f
    1b9c:	98 89       	ldd	r25, Y+16	; 0x10
    1b9e:	0e 94 c6 1b 	call	0x378c	; 0x378c <__subsf3>
    1ba2:	dc 01       	movw	r26, r24
    1ba4:	cb 01       	movw	r24, r22
    1ba6:	9c 01       	movw	r18, r24
    1ba8:	ad 01       	movw	r20, r26
    1baa:	c7 01       	movw	r24, r14
    1bac:	b6 01       	movw	r22, r12
    1bae:	0e 94 2b 1c 	call	0x3856	; 0x3856 <__cmpsf2>
    1bb2:	88 23       	and	r24, r24
    1bb4:	81 f1       	breq	.+96     	; 0x1c16 <UnityFloatsWithin+0x13c>
    1bb6:	2d 85       	ldd	r18, Y+13	; 0x0d
    1bb8:	3e 85       	ldd	r19, Y+14	; 0x0e
    1bba:	4f 85       	ldd	r20, Y+15	; 0x0f
    1bbc:	58 89       	ldd	r21, Y+16	; 0x10
    1bbe:	6d 85       	ldd	r22, Y+13	; 0x0d
    1bc0:	7e 85       	ldd	r23, Y+14	; 0x0e
    1bc2:	8f 85       	ldd	r24, Y+15	; 0x0f
    1bc4:	98 89       	ldd	r25, Y+16	; 0x10
    1bc6:	0e 94 2b 1c 	call	0x3856	; 0x3856 <__cmpsf2>
    1bca:	88 23       	and	r24, r24
    1bcc:	21 f5       	brne	.+72     	; 0x1c16 <UnityFloatsWithin+0x13c>
    1bce:	11 e0       	ldi	r17, 0x01	; 1
    1bd0:	20 e0       	ldi	r18, 0x00	; 0
    1bd2:	30 e0       	ldi	r19, 0x00	; 0
    1bd4:	a9 01       	movw	r20, r18
    1bd6:	69 85       	ldd	r22, Y+9	; 0x09
    1bd8:	7a 85       	ldd	r23, Y+10	; 0x0a
    1bda:	8b 85       	ldd	r24, Y+11	; 0x0b
    1bdc:	9c 85       	ldd	r25, Y+12	; 0x0c
    1bde:	0e 94 2b 1c 	call	0x3856	; 0x3856 <__cmpsf2>
    1be2:	88 23       	and	r24, r24
    1be4:	0c f0       	brlt	.+2      	; 0x1be8 <UnityFloatsWithin+0x10e>
    1be6:	10 e0       	ldi	r17, 0x00	; 0
    1be8:	81 e0       	ldi	r24, 0x01	; 1
    1bea:	01 2f       	mov	r16, r17
    1bec:	08 27       	eor	r16, r24
    1bee:	11 e0       	ldi	r17, 0x01	; 1
    1bf0:	20 e0       	ldi	r18, 0x00	; 0
    1bf2:	30 e0       	ldi	r19, 0x00	; 0
    1bf4:	a9 01       	movw	r20, r18
    1bf6:	6d 85       	ldd	r22, Y+13	; 0x0d
    1bf8:	7e 85       	ldd	r23, Y+14	; 0x0e
    1bfa:	8f 85       	ldd	r24, Y+15	; 0x0f
    1bfc:	98 89       	ldd	r25, Y+16	; 0x10
    1bfe:	0e 94 2b 1c 	call	0x3856	; 0x3856 <__cmpsf2>
    1c02:	88 23       	and	r24, r24
    1c04:	0c f0       	brlt	.+2      	; 0x1c08 <UnityFloatsWithin+0x12e>
    1c06:	10 e0       	ldi	r17, 0x00	; 0
    1c08:	80 2f       	mov	r24, r16
    1c0a:	81 27       	eor	r24, r17
    1c0c:	88 23       	and	r24, r24
    1c0e:	19 f0       	breq	.+6      	; 0x1c16 <UnityFloatsWithin+0x13c>
    1c10:	81 e0       	ldi	r24, 0x01	; 1
    1c12:	90 e0       	ldi	r25, 0x00	; 0
    1c14:	a5 c0       	rjmp	.+330    	; 0x1d60 <UnityFloatsWithin+0x286>
    1c16:	29 85       	ldd	r18, Y+9	; 0x09
    1c18:	3a 85       	ldd	r19, Y+10	; 0x0a
    1c1a:	4b 85       	ldd	r20, Y+11	; 0x0b
    1c1c:	5c 85       	ldd	r21, Y+12	; 0x0c
    1c1e:	69 85       	ldd	r22, Y+9	; 0x09
    1c20:	7a 85       	ldd	r23, Y+10	; 0x0a
    1c22:	8b 85       	ldd	r24, Y+11	; 0x0b
    1c24:	9c 85       	ldd	r25, Y+12	; 0x0c
    1c26:	0e 94 2b 1c 	call	0x3856	; 0x3856 <__cmpsf2>
    1c2a:	88 23       	and	r24, r24
    1c2c:	79 f0       	breq	.+30     	; 0x1c4c <UnityFloatsWithin+0x172>
    1c2e:	2d 85       	ldd	r18, Y+13	; 0x0d
    1c30:	3e 85       	ldd	r19, Y+14	; 0x0e
    1c32:	4f 85       	ldd	r20, Y+15	; 0x0f
    1c34:	58 89       	ldd	r21, Y+16	; 0x10
    1c36:	6d 85       	ldd	r22, Y+13	; 0x0d
    1c38:	7e 85       	ldd	r23, Y+14	; 0x0e
    1c3a:	8f 85       	ldd	r24, Y+15	; 0x0f
    1c3c:	98 89       	ldd	r25, Y+16	; 0x10
    1c3e:	0e 94 2b 1c 	call	0x3856	; 0x3856 <__cmpsf2>
    1c42:	88 23       	and	r24, r24
    1c44:	19 f0       	breq	.+6      	; 0x1c4c <UnityFloatsWithin+0x172>
    1c46:	81 e0       	ldi	r24, 0x01	; 1
    1c48:	90 e0       	ldi	r25, 0x00	; 0
    1c4a:	8a c0       	rjmp	.+276    	; 0x1d60 <UnityFloatsWithin+0x286>
    1c4c:	29 85       	ldd	r18, Y+9	; 0x09
    1c4e:	3a 85       	ldd	r19, Y+10	; 0x0a
    1c50:	4b 85       	ldd	r20, Y+11	; 0x0b
    1c52:	5c 85       	ldd	r21, Y+12	; 0x0c
    1c54:	6d 85       	ldd	r22, Y+13	; 0x0d
    1c56:	7e 85       	ldd	r23, Y+14	; 0x0e
    1c58:	8f 85       	ldd	r24, Y+15	; 0x0f
    1c5a:	98 89       	ldd	r25, Y+16	; 0x10
    1c5c:	0e 94 c6 1b 	call	0x378c	; 0x378c <__subsf3>
    1c60:	dc 01       	movw	r26, r24
    1c62:	cb 01       	movw	r24, r22
    1c64:	89 83       	std	Y+1, r24	; 0x01
    1c66:	9a 83       	std	Y+2, r25	; 0x02
    1c68:	ab 83       	std	Y+3, r26	; 0x03
    1c6a:	bc 83       	std	Y+4, r27	; 0x04
    1c6c:	20 e0       	ldi	r18, 0x00	; 0
    1c6e:	30 e0       	ldi	r19, 0x00	; 0
    1c70:	a9 01       	movw	r20, r18
    1c72:	69 81       	ldd	r22, Y+1	; 0x01
    1c74:	7a 81       	ldd	r23, Y+2	; 0x02
    1c76:	8b 81       	ldd	r24, Y+3	; 0x03
    1c78:	9c 81       	ldd	r25, Y+4	; 0x04
    1c7a:	0e 94 2b 1c 	call	0x3856	; 0x3856 <__cmpsf2>
    1c7e:	88 23       	and	r24, r24
    1c80:	4c f4       	brge	.+18     	; 0x1c94 <UnityFloatsWithin+0x1ba>
    1c82:	89 81       	ldd	r24, Y+1	; 0x01
    1c84:	9a 81       	ldd	r25, Y+2	; 0x02
    1c86:	ab 81       	ldd	r26, Y+3	; 0x03
    1c88:	bc 81       	ldd	r27, Y+4	; 0x04
    1c8a:	b0 58       	subi	r27, 0x80	; 128
    1c8c:	89 83       	std	Y+1, r24	; 0x01
    1c8e:	9a 83       	std	Y+2, r25	; 0x02
    1c90:	ab 83       	std	Y+3, r26	; 0x03
    1c92:	bc 83       	std	Y+4, r27	; 0x04
    1c94:	20 e0       	ldi	r18, 0x00	; 0
    1c96:	30 e0       	ldi	r19, 0x00	; 0
    1c98:	a9 01       	movw	r20, r18
    1c9a:	6d 81       	ldd	r22, Y+5	; 0x05
    1c9c:	7e 81       	ldd	r23, Y+6	; 0x06
    1c9e:	8f 81       	ldd	r24, Y+7	; 0x07
    1ca0:	98 85       	ldd	r25, Y+8	; 0x08
    1ca2:	0e 94 2b 1c 	call	0x3856	; 0x3856 <__cmpsf2>
    1ca6:	88 23       	and	r24, r24
    1ca8:	4c f4       	brge	.+18     	; 0x1cbc <UnityFloatsWithin+0x1e2>
    1caa:	8d 81       	ldd	r24, Y+5	; 0x05
    1cac:	9e 81       	ldd	r25, Y+6	; 0x06
    1cae:	af 81       	ldd	r26, Y+7	; 0x07
    1cb0:	b8 85       	ldd	r27, Y+8	; 0x08
    1cb2:	b0 58       	subi	r27, 0x80	; 128
    1cb4:	8d 83       	std	Y+5, r24	; 0x05
    1cb6:	9e 83       	std	Y+6, r25	; 0x06
    1cb8:	af 83       	std	Y+7, r26	; 0x07
    1cba:	b8 87       	std	Y+8, r27	; 0x08
    1cbc:	29 81       	ldd	r18, Y+1	; 0x01
    1cbe:	3a 81       	ldd	r19, Y+2	; 0x02
    1cc0:	4b 81       	ldd	r20, Y+3	; 0x03
    1cc2:	5c 81       	ldd	r21, Y+4	; 0x04
    1cc4:	69 81       	ldd	r22, Y+1	; 0x01
    1cc6:	7a 81       	ldd	r23, Y+2	; 0x02
    1cc8:	8b 81       	ldd	r24, Y+3	; 0x03
    1cca:	9c 81       	ldd	r25, Y+4	; 0x04
    1ccc:	0e 94 2b 1c 	call	0x3856	; 0x3856 <__cmpsf2>
    1cd0:	88 23       	and	r24, r24
    1cd2:	09 f0       	breq	.+2      	; 0x1cd6 <UnityFloatsWithin+0x1fc>
    1cd4:	43 c0       	rjmp	.+134    	; 0x1d5c <UnityFloatsWithin+0x282>
    1cd6:	29 81       	ldd	r18, Y+1	; 0x01
    1cd8:	3a 81       	ldd	r19, Y+2	; 0x02
    1cda:	4b 81       	ldd	r20, Y+3	; 0x03
    1cdc:	5c 81       	ldd	r21, Y+4	; 0x04
    1cde:	69 81       	ldd	r22, Y+1	; 0x01
    1ce0:	7a 81       	ldd	r23, Y+2	; 0x02
    1ce2:	8b 81       	ldd	r24, Y+3	; 0x03
    1ce4:	9c 81       	ldd	r25, Y+4	; 0x04
    1ce6:	0e 94 c6 1b 	call	0x378c	; 0x378c <__subsf3>
    1cea:	dc 01       	movw	r26, r24
    1cec:	cb 01       	movw	r24, r22
    1cee:	6c 01       	movw	r12, r24
    1cf0:	7d 01       	movw	r14, r26
    1cf2:	29 81       	ldd	r18, Y+1	; 0x01
    1cf4:	3a 81       	ldd	r19, Y+2	; 0x02
    1cf6:	4b 81       	ldd	r20, Y+3	; 0x03
    1cf8:	5c 81       	ldd	r21, Y+4	; 0x04
    1cfa:	69 81       	ldd	r22, Y+1	; 0x01
    1cfc:	7a 81       	ldd	r23, Y+2	; 0x02
    1cfe:	8b 81       	ldd	r24, Y+3	; 0x03
    1d00:	9c 81       	ldd	r25, Y+4	; 0x04
    1d02:	0e 94 c6 1b 	call	0x378c	; 0x378c <__subsf3>
    1d06:	dc 01       	movw	r26, r24
    1d08:	cb 01       	movw	r24, r22
    1d0a:	9c 01       	movw	r18, r24
    1d0c:	ad 01       	movw	r20, r26
    1d0e:	c7 01       	movw	r24, r14
    1d10:	b6 01       	movw	r22, r12
    1d12:	0e 94 2b 1c 	call	0x3856	; 0x3856 <__cmpsf2>
    1d16:	88 23       	and	r24, r24
    1d18:	61 f0       	breq	.+24     	; 0x1d32 <UnityFloatsWithin+0x258>
    1d1a:	29 81       	ldd	r18, Y+1	; 0x01
    1d1c:	3a 81       	ldd	r19, Y+2	; 0x02
    1d1e:	4b 81       	ldd	r20, Y+3	; 0x03
    1d20:	5c 81       	ldd	r21, Y+4	; 0x04
    1d22:	69 81       	ldd	r22, Y+1	; 0x01
    1d24:	7a 81       	ldd	r23, Y+2	; 0x02
    1d26:	8b 81       	ldd	r24, Y+3	; 0x03
    1d28:	9c 81       	ldd	r25, Y+4	; 0x04
    1d2a:	0e 94 2b 1c 	call	0x3856	; 0x3856 <__cmpsf2>
    1d2e:	88 23       	and	r24, r24
    1d30:	a9 f0       	breq	.+42     	; 0x1d5c <UnityFloatsWithin+0x282>
    1d32:	11 e0       	ldi	r17, 0x01	; 1
    1d34:	2d 81       	ldd	r18, Y+5	; 0x05
    1d36:	3e 81       	ldd	r19, Y+6	; 0x06
    1d38:	4f 81       	ldd	r20, Y+7	; 0x07
    1d3a:	58 85       	ldd	r21, Y+8	; 0x08
    1d3c:	69 81       	ldd	r22, Y+1	; 0x01
    1d3e:	7a 81       	ldd	r23, Y+2	; 0x02
    1d40:	8b 81       	ldd	r24, Y+3	; 0x03
    1d42:	9c 81       	ldd	r25, Y+4	; 0x04
    1d44:	0e 94 7a 1d 	call	0x3af4	; 0x3af4 <__gesf2>
    1d48:	18 16       	cp	r1, r24
    1d4a:	0c f0       	brlt	.+2      	; 0x1d4e <UnityFloatsWithin+0x274>
    1d4c:	10 e0       	ldi	r17, 0x00	; 0
    1d4e:	81 e0       	ldi	r24, 0x01	; 1
    1d50:	81 27       	eor	r24, r17
    1d52:	88 23       	and	r24, r24
    1d54:	19 f0       	breq	.+6      	; 0x1d5c <UnityFloatsWithin+0x282>
    1d56:	81 e0       	ldi	r24, 0x01	; 1
    1d58:	90 e0       	ldi	r25, 0x00	; 0
    1d5a:	02 c0       	rjmp	.+4      	; 0x1d60 <UnityFloatsWithin+0x286>
    1d5c:	80 e0       	ldi	r24, 0x00	; 0
    1d5e:	90 e0       	ldi	r25, 0x00	; 0
    1d60:	60 96       	adiw	r28, 0x10	; 16
    1d62:	0f b6       	in	r0, 0x3f	; 63
    1d64:	f8 94       	cli
    1d66:	de bf       	out	0x3e, r29	; 62
    1d68:	0f be       	out	0x3f, r0	; 63
    1d6a:	cd bf       	out	0x3d, r28	; 61
    1d6c:	df 91       	pop	r29
    1d6e:	cf 91       	pop	r28
    1d70:	1f 91       	pop	r17
    1d72:	0f 91       	pop	r16
    1d74:	ff 90       	pop	r15
    1d76:	ef 90       	pop	r14
    1d78:	df 90       	pop	r13
    1d7a:	cf 90       	pop	r12
    1d7c:	08 95       	ret

00001d7e <UnityAssertEqualFloatArray>:
    1d7e:	6f 92       	push	r6
    1d80:	7f 92       	push	r7
    1d82:	8f 92       	push	r8
    1d84:	9f 92       	push	r9
    1d86:	af 92       	push	r10
    1d88:	bf 92       	push	r11
    1d8a:	cf 92       	push	r12
    1d8c:	df 92       	push	r13
    1d8e:	ef 92       	push	r14
    1d90:	ff 92       	push	r15
    1d92:	0f 93       	push	r16
    1d94:	1f 93       	push	r17
    1d96:	cf 93       	push	r28
    1d98:	df 93       	push	r29
    1d9a:	cd b7       	in	r28, 0x3d	; 61
    1d9c:	de b7       	in	r29, 0x3e	; 62
    1d9e:	68 97       	sbiw	r28, 0x18	; 24
    1da0:	0f b6       	in	r0, 0x3f	; 63
    1da2:	f8 94       	cli
    1da4:	de bf       	out	0x3e, r29	; 62
    1da6:	0f be       	out	0x3f, r0	; 63
    1da8:	cd bf       	out	0x3d, r28	; 61
    1daa:	9a 87       	std	Y+10, r25	; 0x0a
    1dac:	89 87       	std	Y+9, r24	; 0x09
    1dae:	7c 87       	std	Y+12, r23	; 0x0c
    1db0:	6b 87       	std	Y+11, r22	; 0x0b
    1db2:	2d 87       	std	Y+13, r18	; 0x0d
    1db4:	3e 87       	std	Y+14, r19	; 0x0e
    1db6:	4f 87       	std	Y+15, r20	; 0x0f
    1db8:	58 8b       	std	Y+16, r21	; 0x10
    1dba:	1a 8b       	std	Y+18, r17	; 0x12
    1dbc:	09 8b       	std	Y+17, r16	; 0x11
    1dbe:	cb 8a       	std	Y+19, r12	; 0x13
    1dc0:	dc 8a       	std	Y+20, r13	; 0x14
    1dc2:	ed 8a       	std	Y+21, r14	; 0x15
    1dc4:	fe 8a       	std	Y+22, r15	; 0x16
    1dc6:	b8 8e       	std	Y+24, r11	; 0x18
    1dc8:	af 8a       	std	Y+23, r10	; 0x17
    1dca:	8d 85       	ldd	r24, Y+13	; 0x0d
    1dcc:	9e 85       	ldd	r25, Y+14	; 0x0e
    1dce:	af 85       	ldd	r26, Y+15	; 0x0f
    1dd0:	b8 89       	ldd	r27, Y+16	; 0x10
    1dd2:	89 83       	std	Y+1, r24	; 0x01
    1dd4:	9a 83       	std	Y+2, r25	; 0x02
    1dd6:	ab 83       	std	Y+3, r26	; 0x03
    1dd8:	bc 83       	std	Y+4, r27	; 0x04
    1dda:	89 85       	ldd	r24, Y+9	; 0x09
    1ddc:	9a 85       	ldd	r25, Y+10	; 0x0a
    1dde:	9e 83       	std	Y+6, r25	; 0x06
    1de0:	8d 83       	std	Y+5, r24	; 0x05
    1de2:	8b 85       	ldd	r24, Y+11	; 0x0b
    1de4:	9c 85       	ldd	r25, Y+12	; 0x0c
    1de6:	98 87       	std	Y+8, r25	; 0x08
    1de8:	8f 83       	std	Y+7, r24	; 0x07
    1dea:	80 91 08 04 	lds	r24, 0x0408
    1dee:	90 91 09 04 	lds	r25, 0x0409
    1df2:	a0 91 0a 04 	lds	r26, 0x040A
    1df6:	b0 91 0b 04 	lds	r27, 0x040B
    1dfa:	00 97       	sbiw	r24, 0x00	; 0
    1dfc:	a1 05       	cpc	r26, r1
    1dfe:	b1 05       	cpc	r27, r1
    1e00:	61 f4       	brne	.+24     	; 0x1e1a <UnityAssertEqualFloatArray+0x9c>
    1e02:	80 91 0c 04 	lds	r24, 0x040C
    1e06:	90 91 0d 04 	lds	r25, 0x040D
    1e0a:	a0 91 0e 04 	lds	r26, 0x040E
    1e0e:	b0 91 0f 04 	lds	r27, 0x040F
    1e12:	00 97       	sbiw	r24, 0x00	; 0
    1e14:	a1 05       	cpc	r26, r1
    1e16:	b1 05       	cpc	r27, r1
    1e18:	09 f0       	breq	.+2      	; 0x1e1c <UnityAssertEqualFloatArray+0x9e>
    1e1a:	fa c0       	rjmp	.+500    	; 0x2010 <UnityAssertEqualFloatArray+0x292>
    1e1c:	89 81       	ldd	r24, Y+1	; 0x01
    1e1e:	9a 81       	ldd	r25, Y+2	; 0x02
    1e20:	ab 81       	ldd	r26, Y+3	; 0x03
    1e22:	bc 81       	ldd	r27, Y+4	; 0x04
    1e24:	00 97       	sbiw	r24, 0x00	; 0
    1e26:	a1 05       	cpc	r26, r1
    1e28:	b1 05       	cpc	r27, r1
    1e2a:	11 f5       	brne	.+68     	; 0x1e70 <UnityAssertEqualFloatArray+0xf2>
    1e2c:	8b 89       	ldd	r24, Y+19	; 0x13
    1e2e:	9c 89       	ldd	r25, Y+20	; 0x14
    1e30:	ad 89       	ldd	r26, Y+21	; 0x15
    1e32:	be 89       	ldd	r27, Y+22	; 0x16
    1e34:	bc 01       	movw	r22, r24
    1e36:	cd 01       	movw	r24, r26
    1e38:	0e 94 44 08 	call	0x1088	; 0x1088 <UnityTestResultsFailBegin>
    1e3c:	8a e6       	ldi	r24, 0x6A	; 106
    1e3e:	92 e0       	ldi	r25, 0x02	; 2
    1e40:	0e 94 54 01 	call	0x2a8	; 0x2a8 <UnityPrint>
    1e44:	89 89       	ldd	r24, Y+17	; 0x11
    1e46:	9a 89       	ldd	r25, Y+18	; 0x12
    1e48:	0e 94 e4 08 	call	0x11c8	; 0x11c8 <UnityAddMsgIfSpecified>
    1e4c:	81 e0       	ldi	r24, 0x01	; 1
    1e4e:	90 e0       	ldi	r25, 0x00	; 0
    1e50:	a0 e0       	ldi	r26, 0x00	; 0
    1e52:	b0 e0       	ldi	r27, 0x00	; 0
    1e54:	80 93 08 04 	sts	0x0408, r24
    1e58:	90 93 09 04 	sts	0x0409, r25
    1e5c:	a0 93 0a 04 	sts	0x040A, r26
    1e60:	b0 93 0b 04 	sts	0x040B, r27
    1e64:	61 e0       	ldi	r22, 0x01	; 1
    1e66:	70 e0       	ldi	r23, 0x00	; 0
    1e68:	80 e1       	ldi	r24, 0x10	; 16
    1e6a:	94 e0       	ldi	r25, 0x04	; 4
    1e6c:	0e 94 03 1e 	call	0x3c06	; 0x3c06 <longjmp>
    1e70:	29 85       	ldd	r18, Y+9	; 0x09
    1e72:	3a 85       	ldd	r19, Y+10	; 0x0a
    1e74:	8b 85       	ldd	r24, Y+11	; 0x0b
    1e76:	9c 85       	ldd	r25, Y+12	; 0x0c
    1e78:	28 17       	cp	r18, r24
    1e7a:	39 07       	cpc	r19, r25
    1e7c:	09 f4       	brne	.+2      	; 0x1e80 <UnityAssertEqualFloatArray+0x102>
    1e7e:	c8 c0       	rjmp	.+400    	; 0x2010 <UnityAssertEqualFloatArray+0x292>
    1e80:	29 89       	ldd	r18, Y+17	; 0x11
    1e82:	3a 89       	ldd	r19, Y+18	; 0x12
    1e84:	8b 89       	ldd	r24, Y+19	; 0x13
    1e86:	9c 89       	ldd	r25, Y+20	; 0x14
    1e88:	ad 89       	ldd	r26, Y+21	; 0x15
    1e8a:	be 89       	ldd	r27, Y+22	; 0x16
    1e8c:	6b 85       	ldd	r22, Y+11	; 0x0b
    1e8e:	7c 85       	ldd	r23, Y+12	; 0x0c
    1e90:	e9 85       	ldd	r30, Y+9	; 0x09
    1e92:	fa 85       	ldd	r31, Y+10	; 0x0a
    1e94:	89 01       	movw	r16, r18
    1e96:	9c 01       	movw	r18, r24
    1e98:	ad 01       	movw	r20, r26
    1e9a:	cf 01       	movw	r24, r30
    1e9c:	0e 94 e7 09 	call	0x13ce	; 0x13ce <UnityIsOneArrayNull>
    1ea0:	00 97       	sbiw	r24, 0x00	; 0
    1ea2:	91 f0       	breq	.+36     	; 0x1ec8 <UnityAssertEqualFloatArray+0x14a>
    1ea4:	81 e0       	ldi	r24, 0x01	; 1
    1ea6:	90 e0       	ldi	r25, 0x00	; 0
    1ea8:	a0 e0       	ldi	r26, 0x00	; 0
    1eaa:	b0 e0       	ldi	r27, 0x00	; 0
    1eac:	80 93 08 04 	sts	0x0408, r24
    1eb0:	90 93 09 04 	sts	0x0409, r25
    1eb4:	a0 93 0a 04 	sts	0x040A, r26
    1eb8:	b0 93 0b 04 	sts	0x040B, r27
    1ebc:	61 e0       	ldi	r22, 0x01	; 1
    1ebe:	70 e0       	ldi	r23, 0x00	; 0
    1ec0:	80 e1       	ldi	r24, 0x10	; 16
    1ec2:	94 e0       	ldi	r25, 0x04	; 4
    1ec4:	0e 94 03 1e 	call	0x3c06	; 0x3c06 <longjmp>
    1ec8:	90 c0       	rjmp	.+288    	; 0x1fea <UnityAssertEqualFloatArray+0x26c>
    1eca:	8f 81       	ldd	r24, Y+7	; 0x07
    1ecc:	98 85       	ldd	r25, Y+8	; 0x08
    1ece:	fc 01       	movw	r30, r24
    1ed0:	60 80       	ld	r6, Z
    1ed2:	71 80       	ldd	r7, Z+1	; 0x01
    1ed4:	82 80       	ldd	r8, Z+2	; 0x02
    1ed6:	93 80       	ldd	r9, Z+3	; 0x03
    1ed8:	8d 81       	ldd	r24, Y+5	; 0x05
    1eda:	9e 81       	ldd	r25, Y+6	; 0x06
    1edc:	fc 01       	movw	r30, r24
    1ede:	a0 80       	ld	r10, Z
    1ee0:	b1 80       	ldd	r11, Z+1	; 0x01
    1ee2:	c2 80       	ldd	r12, Z+2	; 0x02
    1ee4:	d3 80       	ldd	r13, Z+3	; 0x03
    1ee6:	8d 81       	ldd	r24, Y+5	; 0x05
    1ee8:	9e 81       	ldd	r25, Y+6	; 0x06
    1eea:	fc 01       	movw	r30, r24
    1eec:	80 81       	ld	r24, Z
    1eee:	91 81       	ldd	r25, Z+1	; 0x01
    1ef0:	a2 81       	ldd	r26, Z+2	; 0x02
    1ef2:	b3 81       	ldd	r27, Z+3	; 0x03
    1ef4:	2c ea       	ldi	r18, 0xAC	; 172
    1ef6:	35 ec       	ldi	r19, 0xC5	; 197
    1ef8:	47 e2       	ldi	r20, 0x27	; 39
    1efa:	57 e3       	ldi	r21, 0x37	; 55
    1efc:	bc 01       	movw	r22, r24
    1efe:	cd 01       	movw	r24, r26
    1f00:	0e 94 7e 1d 	call	0x3afc	; 0x3afc <__mulsf3>
    1f04:	dc 01       	movw	r26, r24
    1f06:	cb 01       	movw	r24, r22
    1f08:	84 01       	movw	r16, r8
    1f0a:	73 01       	movw	r14, r6
    1f0c:	a6 01       	movw	r20, r12
    1f0e:	95 01       	movw	r18, r10
    1f10:	bc 01       	movw	r22, r24
    1f12:	cd 01       	movw	r24, r26
    1f14:	0e 94 6d 0d 	call	0x1ada	; 0x1ada <UnityFloatsWithin>
    1f18:	00 97       	sbiw	r24, 0x00	; 0
    1f1a:	09 f0       	breq	.+2      	; 0x1f1e <UnityAssertEqualFloatArray+0x1a0>
    1f1c:	57 c0       	rjmp	.+174    	; 0x1fcc <UnityAssertEqualFloatArray+0x24e>
    1f1e:	8b 89       	ldd	r24, Y+19	; 0x13
    1f20:	9c 89       	ldd	r25, Y+20	; 0x14
    1f22:	ad 89       	ldd	r26, Y+21	; 0x15
    1f24:	be 89       	ldd	r27, Y+22	; 0x16
    1f26:	bc 01       	movw	r22, r24
    1f28:	cd 01       	movw	r24, r26
    1f2a:	0e 94 44 08 	call	0x1088	; 0x1088 <UnityTestResultsFailBegin>
    1f2e:	8d e2       	ldi	r24, 0x2D	; 45
    1f30:	92 e0       	ldi	r25, 0x02	; 2
    1f32:	0e 94 54 01 	call	0x2a8	; 0x2a8 <UnityPrint>
    1f36:	2d 85       	ldd	r18, Y+13	; 0x0d
    1f38:	3e 85       	ldd	r19, Y+14	; 0x0e
    1f3a:	4f 85       	ldd	r20, Y+15	; 0x0f
    1f3c:	58 89       	ldd	r21, Y+16	; 0x10
    1f3e:	89 81       	ldd	r24, Y+1	; 0x01
    1f40:	9a 81       	ldd	r25, Y+2	; 0x02
    1f42:	ab 81       	ldd	r26, Y+3	; 0x03
    1f44:	bc 81       	ldd	r27, Y+4	; 0x04
    1f46:	79 01       	movw	r14, r18
    1f48:	8a 01       	movw	r16, r20
    1f4a:	e8 1a       	sub	r14, r24
    1f4c:	f9 0a       	sbc	r15, r25
    1f4e:	0a 0b       	sbc	r16, r26
    1f50:	1b 0b       	sbc	r17, r27
    1f52:	d8 01       	movw	r26, r16
    1f54:	c7 01       	movw	r24, r14
    1f56:	01 97       	sbiw	r24, 0x01	; 1
    1f58:	a1 09       	sbc	r26, r1
    1f5a:	b1 09       	sbc	r27, r1
    1f5c:	bc 01       	movw	r22, r24
    1f5e:	cd 01       	movw	r24, r26
    1f60:	0e 94 2f 03 	call	0x65e	; 0x65e <UnityPrintNumberUnsigned>
    1f64:	8c e1       	ldi	r24, 0x1C	; 28
    1f66:	92 e0       	ldi	r25, 0x02	; 2
    1f68:	0e 94 54 01 	call	0x2a8	; 0x2a8 <UnityPrint>
    1f6c:	8d 81       	ldd	r24, Y+5	; 0x05
    1f6e:	9e 81       	ldd	r25, Y+6	; 0x06
    1f70:	fc 01       	movw	r30, r24
    1f72:	80 81       	ld	r24, Z
    1f74:	91 81       	ldd	r25, Z+1	; 0x01
    1f76:	a2 81       	ldd	r26, Z+2	; 0x02
    1f78:	b3 81       	ldd	r27, Z+3	; 0x03
    1f7a:	bc 01       	movw	r22, r24
    1f7c:	cd 01       	movw	r24, r26
    1f7e:	0e 94 17 05 	call	0xa2e	; 0xa2e <UnityPrintFloat>
    1f82:	87 e2       	ldi	r24, 0x27	; 39
    1f84:	92 e0       	ldi	r25, 0x02	; 2
    1f86:	0e 94 54 01 	call	0x2a8	; 0x2a8 <UnityPrint>
    1f8a:	8f 81       	ldd	r24, Y+7	; 0x07
    1f8c:	98 85       	ldd	r25, Y+8	; 0x08
    1f8e:	fc 01       	movw	r30, r24
    1f90:	80 81       	ld	r24, Z
    1f92:	91 81       	ldd	r25, Z+1	; 0x01
    1f94:	a2 81       	ldd	r26, Z+2	; 0x02
    1f96:	b3 81       	ldd	r27, Z+3	; 0x03
    1f98:	bc 01       	movw	r22, r24
    1f9a:	cd 01       	movw	r24, r26
    1f9c:	0e 94 17 05 	call	0xa2e	; 0xa2e <UnityPrintFloat>
    1fa0:	89 89       	ldd	r24, Y+17	; 0x11
    1fa2:	9a 89       	ldd	r25, Y+18	; 0x12
    1fa4:	0e 94 e4 08 	call	0x11c8	; 0x11c8 <UnityAddMsgIfSpecified>
    1fa8:	81 e0       	ldi	r24, 0x01	; 1
    1faa:	90 e0       	ldi	r25, 0x00	; 0
    1fac:	a0 e0       	ldi	r26, 0x00	; 0
    1fae:	b0 e0       	ldi	r27, 0x00	; 0
    1fb0:	80 93 08 04 	sts	0x0408, r24
    1fb4:	90 93 09 04 	sts	0x0409, r25
    1fb8:	a0 93 0a 04 	sts	0x040A, r26
    1fbc:	b0 93 0b 04 	sts	0x040B, r27
    1fc0:	61 e0       	ldi	r22, 0x01	; 1
    1fc2:	70 e0       	ldi	r23, 0x00	; 0
    1fc4:	80 e1       	ldi	r24, 0x10	; 16
    1fc6:	94 e0       	ldi	r25, 0x04	; 4
    1fc8:	0e 94 03 1e 	call	0x3c06	; 0x3c06 <longjmp>
    1fcc:	8f 89       	ldd	r24, Y+23	; 0x17
    1fce:	98 8d       	ldd	r25, Y+24	; 0x18
    1fd0:	81 30       	cpi	r24, 0x01	; 1
    1fd2:	91 05       	cpc	r25, r1
    1fd4:	29 f4       	brne	.+10     	; 0x1fe0 <UnityAssertEqualFloatArray+0x262>
    1fd6:	8d 81       	ldd	r24, Y+5	; 0x05
    1fd8:	9e 81       	ldd	r25, Y+6	; 0x06
    1fda:	04 96       	adiw	r24, 0x04	; 4
    1fdc:	9e 83       	std	Y+6, r25	; 0x06
    1fde:	8d 83       	std	Y+5, r24	; 0x05
    1fe0:	8f 81       	ldd	r24, Y+7	; 0x07
    1fe2:	98 85       	ldd	r25, Y+8	; 0x08
    1fe4:	04 96       	adiw	r24, 0x04	; 4
    1fe6:	98 87       	std	Y+8, r25	; 0x08
    1fe8:	8f 83       	std	Y+7, r24	; 0x07
    1fea:	89 81       	ldd	r24, Y+1	; 0x01
    1fec:	9a 81       	ldd	r25, Y+2	; 0x02
    1fee:	ab 81       	ldd	r26, Y+3	; 0x03
    1ff0:	bc 81       	ldd	r27, Y+4	; 0x04
    1ff2:	9c 01       	movw	r18, r24
    1ff4:	ad 01       	movw	r20, r26
    1ff6:	21 50       	subi	r18, 0x01	; 1
    1ff8:	31 09       	sbc	r19, r1
    1ffa:	41 09       	sbc	r20, r1
    1ffc:	51 09       	sbc	r21, r1
    1ffe:	29 83       	std	Y+1, r18	; 0x01
    2000:	3a 83       	std	Y+2, r19	; 0x02
    2002:	4b 83       	std	Y+3, r20	; 0x03
    2004:	5c 83       	std	Y+4, r21	; 0x04
    2006:	00 97       	sbiw	r24, 0x00	; 0
    2008:	a1 05       	cpc	r26, r1
    200a:	b1 05       	cpc	r27, r1
    200c:	09 f0       	breq	.+2      	; 0x2010 <UnityAssertEqualFloatArray+0x292>
    200e:	5d cf       	rjmp	.-326    	; 0x1eca <UnityAssertEqualFloatArray+0x14c>
    2010:	68 96       	adiw	r28, 0x18	; 24
    2012:	0f b6       	in	r0, 0x3f	; 63
    2014:	f8 94       	cli
    2016:	de bf       	out	0x3e, r29	; 62
    2018:	0f be       	out	0x3f, r0	; 63
    201a:	cd bf       	out	0x3d, r28	; 61
    201c:	df 91       	pop	r29
    201e:	cf 91       	pop	r28
    2020:	1f 91       	pop	r17
    2022:	0f 91       	pop	r16
    2024:	ff 90       	pop	r15
    2026:	ef 90       	pop	r14
    2028:	df 90       	pop	r13
    202a:	cf 90       	pop	r12
    202c:	bf 90       	pop	r11
    202e:	af 90       	pop	r10
    2030:	9f 90       	pop	r9
    2032:	8f 90       	pop	r8
    2034:	7f 90       	pop	r7
    2036:	6f 90       	pop	r6
    2038:	08 95       	ret

0000203a <UnityAssertFloatsWithin>:
    203a:	8f 92       	push	r8
    203c:	9f 92       	push	r9
    203e:	af 92       	push	r10
    2040:	bf 92       	push	r11
    2042:	cf 92       	push	r12
    2044:	df 92       	push	r13
    2046:	ef 92       	push	r14
    2048:	ff 92       	push	r15
    204a:	0f 93       	push	r16
    204c:	1f 93       	push	r17
    204e:	cf 93       	push	r28
    2050:	df 93       	push	r29
    2052:	cd b7       	in	r28, 0x3d	; 61
    2054:	de b7       	in	r29, 0x3e	; 62
    2056:	62 97       	sbiw	r28, 0x12	; 18
    2058:	0f b6       	in	r0, 0x3f	; 63
    205a:	f8 94       	cli
    205c:	de bf       	out	0x3e, r29	; 62
    205e:	0f be       	out	0x3f, r0	; 63
    2060:	cd bf       	out	0x3d, r28	; 61
    2062:	69 83       	std	Y+1, r22	; 0x01
    2064:	7a 83       	std	Y+2, r23	; 0x02
    2066:	8b 83       	std	Y+3, r24	; 0x03
    2068:	9c 83       	std	Y+4, r25	; 0x04
    206a:	2d 83       	std	Y+5, r18	; 0x05
    206c:	3e 83       	std	Y+6, r19	; 0x06
    206e:	4f 83       	std	Y+7, r20	; 0x07
    2070:	58 87       	std	Y+8, r21	; 0x08
    2072:	e9 86       	std	Y+9, r14	; 0x09
    2074:	fa 86       	std	Y+10, r15	; 0x0a
    2076:	0b 87       	std	Y+11, r16	; 0x0b
    2078:	1c 87       	std	Y+12, r17	; 0x0c
    207a:	de 86       	std	Y+14, r13	; 0x0e
    207c:	cd 86       	std	Y+13, r12	; 0x0d
    207e:	8f 86       	std	Y+15, r8	; 0x0f
    2080:	98 8a       	std	Y+16, r9	; 0x10
    2082:	a9 8a       	std	Y+17, r10	; 0x11
    2084:	ba 8a       	std	Y+18, r11	; 0x12
    2086:	80 91 08 04 	lds	r24, 0x0408
    208a:	90 91 09 04 	lds	r25, 0x0409
    208e:	a0 91 0a 04 	lds	r26, 0x040A
    2092:	b0 91 0b 04 	lds	r27, 0x040B
    2096:	00 97       	sbiw	r24, 0x00	; 0
    2098:	a1 05       	cpc	r26, r1
    209a:	b1 05       	cpc	r27, r1
    209c:	61 f4       	brne	.+24     	; 0x20b6 <UnityAssertFloatsWithin+0x7c>
    209e:	80 91 0c 04 	lds	r24, 0x040C
    20a2:	90 91 0d 04 	lds	r25, 0x040D
    20a6:	a0 91 0e 04 	lds	r26, 0x040E
    20aa:	b0 91 0f 04 	lds	r27, 0x040F
    20ae:	00 97       	sbiw	r24, 0x00	; 0
    20b0:	a1 05       	cpc	r26, r1
    20b2:	b1 05       	cpc	r27, r1
    20b4:	09 f0       	breq	.+2      	; 0x20b8 <UnityAssertFloatsWithin+0x7e>
    20b6:	48 c0       	rjmp	.+144    	; 0x2148 <UnityAssertFloatsWithin+0x10e>
    20b8:	e9 84       	ldd	r14, Y+9	; 0x09
    20ba:	fa 84       	ldd	r15, Y+10	; 0x0a
    20bc:	0b 85       	ldd	r16, Y+11	; 0x0b
    20be:	1c 85       	ldd	r17, Y+12	; 0x0c
    20c0:	2d 81       	ldd	r18, Y+5	; 0x05
    20c2:	3e 81       	ldd	r19, Y+6	; 0x06
    20c4:	4f 81       	ldd	r20, Y+7	; 0x07
    20c6:	58 85       	ldd	r21, Y+8	; 0x08
    20c8:	89 81       	ldd	r24, Y+1	; 0x01
    20ca:	9a 81       	ldd	r25, Y+2	; 0x02
    20cc:	ab 81       	ldd	r26, Y+3	; 0x03
    20ce:	bc 81       	ldd	r27, Y+4	; 0x04
    20d0:	bc 01       	movw	r22, r24
    20d2:	cd 01       	movw	r24, r26
    20d4:	0e 94 6d 0d 	call	0x1ada	; 0x1ada <UnityFloatsWithin>
    20d8:	00 97       	sbiw	r24, 0x00	; 0
    20da:	b1 f5       	brne	.+108    	; 0x2148 <UnityAssertFloatsWithin+0x10e>
    20dc:	8f 85       	ldd	r24, Y+15	; 0x0f
    20de:	98 89       	ldd	r25, Y+16	; 0x10
    20e0:	a9 89       	ldd	r26, Y+17	; 0x11
    20e2:	ba 89       	ldd	r27, Y+18	; 0x12
    20e4:	bc 01       	movw	r22, r24
    20e6:	cd 01       	movw	r24, r26
    20e8:	0e 94 44 08 	call	0x1088	; 0x1088 <UnityTestResultsFailBegin>
    20ec:	8c e1       	ldi	r24, 0x1C	; 28
    20ee:	92 e0       	ldi	r25, 0x02	; 2
    20f0:	0e 94 54 01 	call	0x2a8	; 0x2a8 <UnityPrint>
    20f4:	8d 81       	ldd	r24, Y+5	; 0x05
    20f6:	9e 81       	ldd	r25, Y+6	; 0x06
    20f8:	af 81       	ldd	r26, Y+7	; 0x07
    20fa:	b8 85       	ldd	r27, Y+8	; 0x08
    20fc:	bc 01       	movw	r22, r24
    20fe:	cd 01       	movw	r24, r26
    2100:	0e 94 17 05 	call	0xa2e	; 0xa2e <UnityPrintFloat>
    2104:	87 e2       	ldi	r24, 0x27	; 39
    2106:	92 e0       	ldi	r25, 0x02	; 2
    2108:	0e 94 54 01 	call	0x2a8	; 0x2a8 <UnityPrint>
    210c:	89 85       	ldd	r24, Y+9	; 0x09
    210e:	9a 85       	ldd	r25, Y+10	; 0x0a
    2110:	ab 85       	ldd	r26, Y+11	; 0x0b
    2112:	bc 85       	ldd	r27, Y+12	; 0x0c
    2114:	bc 01       	movw	r22, r24
    2116:	cd 01       	movw	r24, r26
    2118:	0e 94 17 05 	call	0xa2e	; 0xa2e <UnityPrintFloat>
    211c:	8d 85       	ldd	r24, Y+13	; 0x0d
    211e:	9e 85       	ldd	r25, Y+14	; 0x0e
    2120:	0e 94 e4 08 	call	0x11c8	; 0x11c8 <UnityAddMsgIfSpecified>
    2124:	81 e0       	ldi	r24, 0x01	; 1
    2126:	90 e0       	ldi	r25, 0x00	; 0
    2128:	a0 e0       	ldi	r26, 0x00	; 0
    212a:	b0 e0       	ldi	r27, 0x00	; 0
    212c:	80 93 08 04 	sts	0x0408, r24
    2130:	90 93 09 04 	sts	0x0409, r25
    2134:	a0 93 0a 04 	sts	0x040A, r26
    2138:	b0 93 0b 04 	sts	0x040B, r27
    213c:	61 e0       	ldi	r22, 0x01	; 1
    213e:	70 e0       	ldi	r23, 0x00	; 0
    2140:	80 e1       	ldi	r24, 0x10	; 16
    2142:	94 e0       	ldi	r25, 0x04	; 4
    2144:	0e 94 03 1e 	call	0x3c06	; 0x3c06 <longjmp>
    2148:	62 96       	adiw	r28, 0x12	; 18
    214a:	0f b6       	in	r0, 0x3f	; 63
    214c:	f8 94       	cli
    214e:	de bf       	out	0x3e, r29	; 62
    2150:	0f be       	out	0x3f, r0	; 63
    2152:	cd bf       	out	0x3d, r28	; 61
    2154:	df 91       	pop	r29
    2156:	cf 91       	pop	r28
    2158:	1f 91       	pop	r17
    215a:	0f 91       	pop	r16
    215c:	ff 90       	pop	r15
    215e:	ef 90       	pop	r14
    2160:	df 90       	pop	r13
    2162:	cf 90       	pop	r12
    2164:	bf 90       	pop	r11
    2166:	af 90       	pop	r10
    2168:	9f 90       	pop	r9
    216a:	8f 90       	pop	r8
    216c:	08 95       	ret

0000216e <UnityAssertFloatSpecial>:
    216e:	cf 92       	push	r12
    2170:	df 92       	push	r13
    2172:	ef 92       	push	r14
    2174:	ff 92       	push	r15
    2176:	0f 93       	push	r16
    2178:	1f 93       	push	r17
    217a:	cf 93       	push	r28
    217c:	df 93       	push	r29
    217e:	cd b7       	in	r28, 0x3d	; 61
    2180:	de b7       	in	r29, 0x3e	; 62
    2182:	a0 97       	sbiw	r28, 0x20	; 32
    2184:	0f b6       	in	r0, 0x3f	; 63
    2186:	f8 94       	cli
    2188:	de bf       	out	0x3e, r29	; 62
    218a:	0f be       	out	0x3f, r0	; 63
    218c:	cd bf       	out	0x3d, r28	; 61
    218e:	6d 8b       	std	Y+21, r22	; 0x15
    2190:	7e 8b       	std	Y+22, r23	; 0x16
    2192:	8f 8b       	std	Y+23, r24	; 0x17
    2194:	98 8f       	std	Y+24, r25	; 0x18
    2196:	5a 8f       	std	Y+26, r21	; 0x1a
    2198:	49 8f       	std	Y+25, r20	; 0x19
    219a:	0b 8f       	std	Y+27, r16	; 0x1b
    219c:	1c 8f       	std	Y+28, r17	; 0x1c
    219e:	2d 8f       	std	Y+29, r18	; 0x1d
    21a0:	3e 8f       	std	Y+30, r19	; 0x1e
    21a2:	f8 a2       	std	Y+32, r15	; 0x20
    21a4:	ef 8e       	std	Y+31, r14	; 0x1f
    21a6:	88 e0       	ldi	r24, 0x08	; 8
    21a8:	ed ec       	ldi	r30, 0xCD	; 205
    21aa:	f3 e0       	ldi	r31, 0x03	; 3
    21ac:	de 01       	movw	r26, r28
    21ae:	1d 96       	adiw	r26, 0x0d	; 13
    21b0:	01 90       	ld	r0, Z+
    21b2:	0d 92       	st	X+, r0
    21b4:	8a 95       	dec	r24
    21b6:	e1 f7       	brne	.-8      	; 0x21b0 <UnityAssertFloatSpecial+0x42>
    21b8:	8f 8d       	ldd	r24, Y+31	; 0x1f
    21ba:	98 a1       	ldd	r25, Y+32	; 0x20
    21bc:	cc 01       	movw	r24, r24
    21be:	a0 e0       	ldi	r26, 0x00	; 0
    21c0:	b0 e0       	ldi	r27, 0x00	; 0
    21c2:	81 70       	andi	r24, 0x01	; 1
    21c4:	99 27       	eor	r25, r25
    21c6:	aa 27       	eor	r26, r26
    21c8:	bb 27       	eor	r27, r27
    21ca:	89 87       	std	Y+9, r24	; 0x09
    21cc:	9a 87       	std	Y+10, r25	; 0x0a
    21ce:	ab 87       	std	Y+11, r26	; 0x0b
    21d0:	bc 87       	std	Y+12, r27	; 0x0c
    21d2:	21 e0       	ldi	r18, 0x01	; 1
    21d4:	89 85       	ldd	r24, Y+9	; 0x09
    21d6:	9a 85       	ldd	r25, Y+10	; 0x0a
    21d8:	ab 85       	ldd	r26, Y+11	; 0x0b
    21da:	bc 85       	ldd	r27, Y+12	; 0x0c
    21dc:	00 97       	sbiw	r24, 0x00	; 0
    21de:	a1 05       	cpc	r26, r1
    21e0:	b1 05       	cpc	r27, r1
    21e2:	09 f0       	breq	.+2      	; 0x21e6 <UnityAssertFloatSpecial+0x78>
    21e4:	20 e0       	ldi	r18, 0x00	; 0
    21e6:	82 2f       	mov	r24, r18
    21e8:	90 e0       	ldi	r25, 0x00	; 0
    21ea:	a0 e0       	ldi	r26, 0x00	; 0
    21ec:	b0 e0       	ldi	r27, 0x00	; 0
    21ee:	89 83       	std	Y+1, r24	; 0x01
    21f0:	9a 83       	std	Y+2, r25	; 0x02
    21f2:	ab 83       	std	Y+3, r26	; 0x03
    21f4:	bc 83       	std	Y+4, r27	; 0x04
    21f6:	8f 8d       	ldd	r24, Y+31	; 0x1f
    21f8:	98 a1       	ldd	r25, Y+32	; 0x20
    21fa:	96 95       	lsr	r25
    21fc:	87 95       	ror	r24
    21fe:	cc 01       	movw	r24, r24
    2200:	a0 e0       	ldi	r26, 0x00	; 0
    2202:	b0 e0       	ldi	r27, 0x00	; 0
    2204:	8d 83       	std	Y+5, r24	; 0x05
    2206:	9e 83       	std	Y+6, r25	; 0x06
    2208:	af 83       	std	Y+7, r26	; 0x07
    220a:	b8 87       	std	Y+8, r27	; 0x08
    220c:	80 91 08 04 	lds	r24, 0x0408
    2210:	90 91 09 04 	lds	r25, 0x0409
    2214:	a0 91 0a 04 	lds	r26, 0x040A
    2218:	b0 91 0b 04 	lds	r27, 0x040B
    221c:	00 97       	sbiw	r24, 0x00	; 0
    221e:	a1 05       	cpc	r26, r1
    2220:	b1 05       	cpc	r27, r1
    2222:	09 f0       	breq	.+2      	; 0x2226 <__stack+0x27>
    2224:	6e c1       	rjmp	.+732    	; 0x2502 <__stack+0x303>
    2226:	80 91 0c 04 	lds	r24, 0x040C
    222a:	90 91 0d 04 	lds	r25, 0x040D
    222e:	a0 91 0e 04 	lds	r26, 0x040E
    2232:	b0 91 0f 04 	lds	r27, 0x040F
    2236:	00 97       	sbiw	r24, 0x00	; 0
    2238:	a1 05       	cpc	r26, r1
    223a:	b1 05       	cpc	r27, r1
    223c:	09 f0       	breq	.+2      	; 0x2240 <__stack+0x41>
    223e:	61 c1       	rjmp	.+706    	; 0x2502 <__stack+0x303>
    2240:	8f 8d       	ldd	r24, Y+31	; 0x1f
    2242:	98 a1       	ldd	r25, Y+32	; 0x20
    2244:	cc 01       	movw	r24, r24
    2246:	a0 e0       	ldi	r26, 0x00	; 0
    2248:	b0 e0       	ldi	r27, 0x00	; 0
    224a:	40 e0       	ldi	r20, 0x00	; 0
    224c:	50 e0       	ldi	r21, 0x00	; 0
    224e:	27 e0       	ldi	r18, 0x07	; 7
    2250:	30 e0       	ldi	r19, 0x00	; 0
    2252:	84 1b       	sub	r24, r20
    2254:	95 0b       	sbc	r25, r21
    2256:	28 17       	cp	r18, r24
    2258:	39 07       	cpc	r19, r25
    225a:	08 f4       	brcc	.+2      	; 0x225e <__stack+0x5f>
    225c:	f2 c0       	rjmp	.+484    	; 0x2442 <__stack+0x243>
    225e:	8e 58       	subi	r24, 0x8E	; 142
    2260:	9f 4f       	sbci	r25, 0xFF	; 255
    2262:	fc 01       	movw	r30, r24
    2264:	0c 94 c0 1b 	jmp	0x3780	; 0x3780 <__tablejump2__>
    2268:	2d 89       	ldd	r18, Y+21	; 0x15
    226a:	3e 89       	ldd	r19, Y+22	; 0x16
    226c:	4f 89       	ldd	r20, Y+23	; 0x17
    226e:	58 8d       	ldd	r21, Y+24	; 0x18
    2270:	6d 89       	ldd	r22, Y+21	; 0x15
    2272:	7e 89       	ldd	r23, Y+22	; 0x16
    2274:	8f 89       	ldd	r24, Y+23	; 0x17
    2276:	98 8d       	ldd	r25, Y+24	; 0x18
    2278:	0e 94 c6 1b 	call	0x378c	; 0x378c <__subsf3>
    227c:	dc 01       	movw	r26, r24
    227e:	cb 01       	movw	r24, r22
    2280:	6c 01       	movw	r12, r24
    2282:	7d 01       	movw	r14, r26
    2284:	2d 89       	ldd	r18, Y+21	; 0x15
    2286:	3e 89       	ldd	r19, Y+22	; 0x16
    2288:	4f 89       	ldd	r20, Y+23	; 0x17
    228a:	58 8d       	ldd	r21, Y+24	; 0x18
    228c:	6d 89       	ldd	r22, Y+21	; 0x15
    228e:	7e 89       	ldd	r23, Y+22	; 0x16
    2290:	8f 89       	ldd	r24, Y+23	; 0x17
    2292:	98 8d       	ldd	r25, Y+24	; 0x18
    2294:	0e 94 c6 1b 	call	0x378c	; 0x378c <__subsf3>
    2298:	dc 01       	movw	r26, r24
    229a:	cb 01       	movw	r24, r22
    229c:	9c 01       	movw	r18, r24
    229e:	ad 01       	movw	r20, r26
    22a0:	c7 01       	movw	r24, r14
    22a2:	b6 01       	movw	r22, r12
    22a4:	0e 94 2b 1c 	call	0x3856	; 0x3856 <__cmpsf2>
    22a8:	88 23       	and	r24, r24
    22aa:	d1 f0       	breq	.+52     	; 0x22e0 <__stack+0xe1>
    22ac:	2d 89       	ldd	r18, Y+21	; 0x15
    22ae:	3e 89       	ldd	r19, Y+22	; 0x16
    22b0:	4f 89       	ldd	r20, Y+23	; 0x17
    22b2:	58 8d       	ldd	r21, Y+24	; 0x18
    22b4:	6d 89       	ldd	r22, Y+21	; 0x15
    22b6:	7e 89       	ldd	r23, Y+22	; 0x16
    22b8:	8f 89       	ldd	r24, Y+23	; 0x17
    22ba:	98 8d       	ldd	r25, Y+24	; 0x18
    22bc:	0e 94 2b 1c 	call	0x3856	; 0x3856 <__cmpsf2>
    22c0:	88 23       	and	r24, r24
    22c2:	71 f4       	brne	.+28     	; 0x22e0 <__stack+0xe1>
    22c4:	20 e0       	ldi	r18, 0x00	; 0
    22c6:	30 e0       	ldi	r19, 0x00	; 0
    22c8:	a9 01       	movw	r20, r18
    22ca:	6d 89       	ldd	r22, Y+21	; 0x15
    22cc:	7e 89       	ldd	r23, Y+22	; 0x16
    22ce:	8f 89       	ldd	r24, Y+23	; 0x17
    22d0:	98 8d       	ldd	r25, Y+24	; 0x18
    22d2:	0e 94 7a 1d 	call	0x3af4	; 0x3af4 <__gesf2>
    22d6:	18 16       	cp	r1, r24
    22d8:	1c f4       	brge	.+6      	; 0x22e0 <__stack+0xe1>
    22da:	81 e0       	ldi	r24, 0x01	; 1
    22dc:	90 e0       	ldi	r25, 0x00	; 0
    22de:	02 c0       	rjmp	.+4      	; 0x22e4 <__stack+0xe5>
    22e0:	80 e0       	ldi	r24, 0x00	; 0
    22e2:	90 e0       	ldi	r25, 0x00	; 0
    22e4:	aa 27       	eor	r26, r26
    22e6:	97 fd       	sbrc	r25, 7
    22e8:	a0 95       	com	r26
    22ea:	ba 2f       	mov	r27, r26
    22ec:	89 83       	std	Y+1, r24	; 0x01
    22ee:	9a 83       	std	Y+2, r25	; 0x02
    22f0:	ab 83       	std	Y+3, r26	; 0x03
    22f2:	bc 83       	std	Y+4, r27	; 0x04
    22f4:	af c0       	rjmp	.+350    	; 0x2454 <__stack+0x255>
    22f6:	2d 89       	ldd	r18, Y+21	; 0x15
    22f8:	3e 89       	ldd	r19, Y+22	; 0x16
    22fa:	4f 89       	ldd	r20, Y+23	; 0x17
    22fc:	58 8d       	ldd	r21, Y+24	; 0x18
    22fe:	6d 89       	ldd	r22, Y+21	; 0x15
    2300:	7e 89       	ldd	r23, Y+22	; 0x16
    2302:	8f 89       	ldd	r24, Y+23	; 0x17
    2304:	98 8d       	ldd	r25, Y+24	; 0x18
    2306:	0e 94 c6 1b 	call	0x378c	; 0x378c <__subsf3>
    230a:	dc 01       	movw	r26, r24
    230c:	cb 01       	movw	r24, r22
    230e:	6c 01       	movw	r12, r24
    2310:	7d 01       	movw	r14, r26
    2312:	2d 89       	ldd	r18, Y+21	; 0x15
    2314:	3e 89       	ldd	r19, Y+22	; 0x16
    2316:	4f 89       	ldd	r20, Y+23	; 0x17
    2318:	58 8d       	ldd	r21, Y+24	; 0x18
    231a:	6d 89       	ldd	r22, Y+21	; 0x15
    231c:	7e 89       	ldd	r23, Y+22	; 0x16
    231e:	8f 89       	ldd	r24, Y+23	; 0x17
    2320:	98 8d       	ldd	r25, Y+24	; 0x18
    2322:	0e 94 c6 1b 	call	0x378c	; 0x378c <__subsf3>
    2326:	dc 01       	movw	r26, r24
    2328:	cb 01       	movw	r24, r22
    232a:	9c 01       	movw	r18, r24
    232c:	ad 01       	movw	r20, r26
    232e:	c7 01       	movw	r24, r14
    2330:	b6 01       	movw	r22, r12
    2332:	0e 94 2b 1c 	call	0x3856	; 0x3856 <__cmpsf2>
    2336:	88 23       	and	r24, r24
    2338:	d1 f0       	breq	.+52     	; 0x236e <__stack+0x16f>
    233a:	2d 89       	ldd	r18, Y+21	; 0x15
    233c:	3e 89       	ldd	r19, Y+22	; 0x16
    233e:	4f 89       	ldd	r20, Y+23	; 0x17
    2340:	58 8d       	ldd	r21, Y+24	; 0x18
    2342:	6d 89       	ldd	r22, Y+21	; 0x15
    2344:	7e 89       	ldd	r23, Y+22	; 0x16
    2346:	8f 89       	ldd	r24, Y+23	; 0x17
    2348:	98 8d       	ldd	r25, Y+24	; 0x18
    234a:	0e 94 2b 1c 	call	0x3856	; 0x3856 <__cmpsf2>
    234e:	88 23       	and	r24, r24
    2350:	71 f4       	brne	.+28     	; 0x236e <__stack+0x16f>
    2352:	20 e0       	ldi	r18, 0x00	; 0
    2354:	30 e0       	ldi	r19, 0x00	; 0
    2356:	a9 01       	movw	r20, r18
    2358:	6d 89       	ldd	r22, Y+21	; 0x15
    235a:	7e 89       	ldd	r23, Y+22	; 0x16
    235c:	8f 89       	ldd	r24, Y+23	; 0x17
    235e:	98 8d       	ldd	r25, Y+24	; 0x18
    2360:	0e 94 2b 1c 	call	0x3856	; 0x3856 <__cmpsf2>
    2364:	88 23       	and	r24, r24
    2366:	1c f4       	brge	.+6      	; 0x236e <__stack+0x16f>
    2368:	81 e0       	ldi	r24, 0x01	; 1
    236a:	90 e0       	ldi	r25, 0x00	; 0
    236c:	02 c0       	rjmp	.+4      	; 0x2372 <__stack+0x173>
    236e:	80 e0       	ldi	r24, 0x00	; 0
    2370:	90 e0       	ldi	r25, 0x00	; 0
    2372:	aa 27       	eor	r26, r26
    2374:	97 fd       	sbrc	r25, 7
    2376:	a0 95       	com	r26
    2378:	ba 2f       	mov	r27, r26
    237a:	89 83       	std	Y+1, r24	; 0x01
    237c:	9a 83       	std	Y+2, r25	; 0x02
    237e:	ab 83       	std	Y+3, r26	; 0x03
    2380:	bc 83       	std	Y+4, r27	; 0x04
    2382:	68 c0       	rjmp	.+208    	; 0x2454 <__stack+0x255>
    2384:	11 e0       	ldi	r17, 0x01	; 1
    2386:	2d 89       	ldd	r18, Y+21	; 0x15
    2388:	3e 89       	ldd	r19, Y+22	; 0x16
    238a:	4f 89       	ldd	r20, Y+23	; 0x17
    238c:	58 8d       	ldd	r21, Y+24	; 0x18
    238e:	6d 89       	ldd	r22, Y+21	; 0x15
    2390:	7e 89       	ldd	r23, Y+22	; 0x16
    2392:	8f 89       	ldd	r24, Y+23	; 0x17
    2394:	98 8d       	ldd	r25, Y+24	; 0x18
    2396:	0e 94 2b 1c 	call	0x3856	; 0x3856 <__cmpsf2>
    239a:	88 23       	and	r24, r24
    239c:	09 f4       	brne	.+2      	; 0x23a0 <__stack+0x1a1>
    239e:	10 e0       	ldi	r17, 0x00	; 0
    23a0:	81 2f       	mov	r24, r17
    23a2:	90 e0       	ldi	r25, 0x00	; 0
    23a4:	a0 e0       	ldi	r26, 0x00	; 0
    23a6:	b0 e0       	ldi	r27, 0x00	; 0
    23a8:	89 83       	std	Y+1, r24	; 0x01
    23aa:	9a 83       	std	Y+2, r25	; 0x02
    23ac:	ab 83       	std	Y+3, r26	; 0x03
    23ae:	bc 83       	std	Y+4, r27	; 0x04
    23b0:	51 c0       	rjmp	.+162    	; 0x2454 <__stack+0x255>
    23b2:	2d 89       	ldd	r18, Y+21	; 0x15
    23b4:	3e 89       	ldd	r19, Y+22	; 0x16
    23b6:	4f 89       	ldd	r20, Y+23	; 0x17
    23b8:	58 8d       	ldd	r21, Y+24	; 0x18
    23ba:	6d 89       	ldd	r22, Y+21	; 0x15
    23bc:	7e 89       	ldd	r23, Y+22	; 0x16
    23be:	8f 89       	ldd	r24, Y+23	; 0x17
    23c0:	98 8d       	ldd	r25, Y+24	; 0x18
    23c2:	0e 94 c6 1b 	call	0x378c	; 0x378c <__subsf3>
    23c6:	dc 01       	movw	r26, r24
    23c8:	cb 01       	movw	r24, r22
    23ca:	6c 01       	movw	r12, r24
    23cc:	7d 01       	movw	r14, r26
    23ce:	2d 89       	ldd	r18, Y+21	; 0x15
    23d0:	3e 89       	ldd	r19, Y+22	; 0x16
    23d2:	4f 89       	ldd	r20, Y+23	; 0x17
    23d4:	58 8d       	ldd	r21, Y+24	; 0x18
    23d6:	6d 89       	ldd	r22, Y+21	; 0x15
    23d8:	7e 89       	ldd	r23, Y+22	; 0x16
    23da:	8f 89       	ldd	r24, Y+23	; 0x17
    23dc:	98 8d       	ldd	r25, Y+24	; 0x18
    23de:	0e 94 c6 1b 	call	0x378c	; 0x378c <__subsf3>
    23e2:	dc 01       	movw	r26, r24
    23e4:	cb 01       	movw	r24, r22
    23e6:	9c 01       	movw	r18, r24
    23e8:	ad 01       	movw	r20, r26
    23ea:	c7 01       	movw	r24, r14
    23ec:	b6 01       	movw	r22, r12
    23ee:	0e 94 2b 1c 	call	0x3856	; 0x3856 <__cmpsf2>
    23f2:	88 23       	and	r24, r24
    23f4:	61 f0       	breq	.+24     	; 0x240e <__stack+0x20f>
    23f6:	2d 89       	ldd	r18, Y+21	; 0x15
    23f8:	3e 89       	ldd	r19, Y+22	; 0x16
    23fa:	4f 89       	ldd	r20, Y+23	; 0x17
    23fc:	58 8d       	ldd	r21, Y+24	; 0x18
    23fe:	6d 89       	ldd	r22, Y+21	; 0x15
    2400:	7e 89       	ldd	r23, Y+22	; 0x16
    2402:	8f 89       	ldd	r24, Y+23	; 0x17
    2404:	98 8d       	ldd	r25, Y+24	; 0x18
    2406:	0e 94 2b 1c 	call	0x3856	; 0x3856 <__cmpsf2>
    240a:	88 23       	and	r24, r24
    240c:	79 f0       	breq	.+30     	; 0x242c <__stack+0x22d>
    240e:	2d 89       	ldd	r18, Y+21	; 0x15
    2410:	3e 89       	ldd	r19, Y+22	; 0x16
    2412:	4f 89       	ldd	r20, Y+23	; 0x17
    2414:	58 8d       	ldd	r21, Y+24	; 0x18
    2416:	6d 89       	ldd	r22, Y+21	; 0x15
    2418:	7e 89       	ldd	r23, Y+22	; 0x16
    241a:	8f 89       	ldd	r24, Y+23	; 0x17
    241c:	98 8d       	ldd	r25, Y+24	; 0x18
    241e:	0e 94 2b 1c 	call	0x3856	; 0x3856 <__cmpsf2>
    2422:	88 23       	and	r24, r24
    2424:	19 f4       	brne	.+6      	; 0x242c <__stack+0x22d>
    2426:	81 e0       	ldi	r24, 0x01	; 1
    2428:	90 e0       	ldi	r25, 0x00	; 0
    242a:	02 c0       	rjmp	.+4      	; 0x2430 <__stack+0x231>
    242c:	80 e0       	ldi	r24, 0x00	; 0
    242e:	90 e0       	ldi	r25, 0x00	; 0
    2430:	aa 27       	eor	r26, r26
    2432:	97 fd       	sbrc	r25, 7
    2434:	a0 95       	com	r26
    2436:	ba 2f       	mov	r27, r26
    2438:	89 83       	std	Y+1, r24	; 0x01
    243a:	9a 83       	std	Y+2, r25	; 0x02
    243c:	ab 83       	std	Y+3, r26	; 0x03
    243e:	bc 83       	std	Y+4, r27	; 0x04
    2440:	09 c0       	rjmp	.+18     	; 0x2454 <__stack+0x255>
    2442:	1d 82       	std	Y+5, r1	; 0x05
    2444:	1e 82       	std	Y+6, r1	; 0x06
    2446:	1f 82       	std	Y+7, r1	; 0x07
    2448:	18 86       	std	Y+8, r1	; 0x08
    244a:	87 e0       	ldi	r24, 0x07	; 7
    244c:	93 e0       	ldi	r25, 0x03	; 3
    244e:	9e 87       	std	Y+14, r25	; 0x0e
    2450:	8d 87       	std	Y+13, r24	; 0x0d
    2452:	00 00       	nop
    2454:	29 81       	ldd	r18, Y+1	; 0x01
    2456:	3a 81       	ldd	r19, Y+2	; 0x02
    2458:	4b 81       	ldd	r20, Y+3	; 0x03
    245a:	5c 81       	ldd	r21, Y+4	; 0x04
    245c:	89 85       	ldd	r24, Y+9	; 0x09
    245e:	9a 85       	ldd	r25, Y+10	; 0x0a
    2460:	ab 85       	ldd	r26, Y+11	; 0x0b
    2462:	bc 85       	ldd	r27, Y+12	; 0x0c
    2464:	28 17       	cp	r18, r24
    2466:	39 07       	cpc	r19, r25
    2468:	4a 07       	cpc	r20, r26
    246a:	5b 07       	cpc	r21, r27
    246c:	09 f4       	brne	.+2      	; 0x2470 <__stack+0x271>
    246e:	49 c0       	rjmp	.+146    	; 0x2502 <__stack+0x303>
    2470:	8b 8d       	ldd	r24, Y+27	; 0x1b
    2472:	9c 8d       	ldd	r25, Y+28	; 0x1c
    2474:	ad 8d       	ldd	r26, Y+29	; 0x1d
    2476:	be 8d       	ldd	r27, Y+30	; 0x1e
    2478:	bc 01       	movw	r22, r24
    247a:	cd 01       	movw	r24, r26
    247c:	0e 94 44 08 	call	0x1088	; 0x1088 <UnityTestResultsFailBegin>
    2480:	8c e1       	ldi	r24, 0x1C	; 28
    2482:	92 e0       	ldi	r25, 0x02	; 2
    2484:	0e 94 54 01 	call	0x2a8	; 0x2a8 <UnityPrint>
    2488:	89 85       	ldd	r24, Y+9	; 0x09
    248a:	9a 85       	ldd	r25, Y+10	; 0x0a
    248c:	ab 85       	ldd	r26, Y+11	; 0x0b
    248e:	bc 85       	ldd	r27, Y+12	; 0x0c
    2490:	00 97       	sbiw	r24, 0x00	; 0
    2492:	a1 05       	cpc	r26, r1
    2494:	b1 05       	cpc	r27, r1
    2496:	21 f4       	brne	.+8      	; 0x24a0 <__stack+0x2a1>
    2498:	87 ed       	ldi	r24, 0xD7	; 215
    249a:	92 e0       	ldi	r25, 0x02	; 2
    249c:	0e 94 54 01 	call	0x2a8	; 0x2a8 <UnityPrint>
    24a0:	8d 81       	ldd	r24, Y+5	; 0x05
    24a2:	9e 81       	ldd	r25, Y+6	; 0x06
    24a4:	88 0f       	add	r24, r24
    24a6:	99 1f       	adc	r25, r25
    24a8:	9e 01       	movw	r18, r28
    24aa:	2f 5f       	subi	r18, 0xFF	; 255
    24ac:	3f 4f       	sbci	r19, 0xFF	; 255
    24ae:	82 0f       	add	r24, r18
    24b0:	93 1f       	adc	r25, r19
    24b2:	0c 96       	adiw	r24, 0x0c	; 12
    24b4:	fc 01       	movw	r30, r24
    24b6:	80 81       	ld	r24, Z
    24b8:	91 81       	ldd	r25, Z+1	; 0x01
    24ba:	0e 94 54 01 	call	0x2a8	; 0x2a8 <UnityPrint>
    24be:	87 e2       	ldi	r24, 0x27	; 39
    24c0:	92 e0       	ldi	r25, 0x02	; 2
    24c2:	0e 94 54 01 	call	0x2a8	; 0x2a8 <UnityPrint>
    24c6:	8d 89       	ldd	r24, Y+21	; 0x15
    24c8:	9e 89       	ldd	r25, Y+22	; 0x16
    24ca:	af 89       	ldd	r26, Y+23	; 0x17
    24cc:	b8 8d       	ldd	r27, Y+24	; 0x18
    24ce:	bc 01       	movw	r22, r24
    24d0:	cd 01       	movw	r24, r26
    24d2:	0e 94 17 05 	call	0xa2e	; 0xa2e <UnityPrintFloat>
    24d6:	89 8d       	ldd	r24, Y+25	; 0x19
    24d8:	9a 8d       	ldd	r25, Y+26	; 0x1a
    24da:	0e 94 e4 08 	call	0x11c8	; 0x11c8 <UnityAddMsgIfSpecified>
    24de:	81 e0       	ldi	r24, 0x01	; 1
    24e0:	90 e0       	ldi	r25, 0x00	; 0
    24e2:	a0 e0       	ldi	r26, 0x00	; 0
    24e4:	b0 e0       	ldi	r27, 0x00	; 0
    24e6:	80 93 08 04 	sts	0x0408, r24
    24ea:	90 93 09 04 	sts	0x0409, r25
    24ee:	a0 93 0a 04 	sts	0x040A, r26
    24f2:	b0 93 0b 04 	sts	0x040B, r27
    24f6:	61 e0       	ldi	r22, 0x01	; 1
    24f8:	70 e0       	ldi	r23, 0x00	; 0
    24fa:	80 e1       	ldi	r24, 0x10	; 16
    24fc:	94 e0       	ldi	r25, 0x04	; 4
    24fe:	0e 94 03 1e 	call	0x3c06	; 0x3c06 <longjmp>
    2502:	a0 96       	adiw	r28, 0x20	; 32
    2504:	0f b6       	in	r0, 0x3f	; 63
    2506:	f8 94       	cli
    2508:	de bf       	out	0x3e, r29	; 62
    250a:	0f be       	out	0x3f, r0	; 63
    250c:	cd bf       	out	0x3d, r28	; 61
    250e:	df 91       	pop	r29
    2510:	cf 91       	pop	r28
    2512:	1f 91       	pop	r17
    2514:	0f 91       	pop	r16
    2516:	ff 90       	pop	r15
    2518:	ef 90       	pop	r14
    251a:	df 90       	pop	r13
    251c:	cf 90       	pop	r12
    251e:	08 95       	ret

00002520 <UnityAssertNumbersWithin>:
    2520:	8f 92       	push	r8
    2522:	9f 92       	push	r9
    2524:	af 92       	push	r10
    2526:	bf 92       	push	r11
    2528:	cf 92       	push	r12
    252a:	df 92       	push	r13
    252c:	ef 92       	push	r14
    252e:	ff 92       	push	r15
    2530:	0f 93       	push	r16
    2532:	1f 93       	push	r17
    2534:	cf 93       	push	r28
    2536:	df 93       	push	r29
    2538:	cd b7       	in	r28, 0x3d	; 61
    253a:	de b7       	in	r29, 0x3e	; 62
    253c:	62 97       	sbiw	r28, 0x12	; 18
    253e:	0f b6       	in	r0, 0x3f	; 63
    2540:	f8 94       	cli
    2542:	de bf       	out	0x3e, r29	; 62
    2544:	0f be       	out	0x3f, r0	; 63
    2546:	cd bf       	out	0x3d, r28	; 61
    2548:	69 83       	std	Y+1, r22	; 0x01
    254a:	7a 83       	std	Y+2, r23	; 0x02
    254c:	8b 83       	std	Y+3, r24	; 0x03
    254e:	9c 83       	std	Y+4, r25	; 0x04
    2550:	2d 83       	std	Y+5, r18	; 0x05
    2552:	3e 83       	std	Y+6, r19	; 0x06
    2554:	4f 83       	std	Y+7, r20	; 0x07
    2556:	58 87       	std	Y+8, r21	; 0x08
    2558:	e9 86       	std	Y+9, r14	; 0x09
    255a:	fa 86       	std	Y+10, r15	; 0x0a
    255c:	0b 87       	std	Y+11, r16	; 0x0b
    255e:	1c 87       	std	Y+12, r17	; 0x0c
    2560:	de 86       	std	Y+14, r13	; 0x0e
    2562:	cd 86       	std	Y+13, r12	; 0x0d
    2564:	8f 86       	std	Y+15, r8	; 0x0f
    2566:	98 8a       	std	Y+16, r9	; 0x10
    2568:	a9 8a       	std	Y+17, r10	; 0x11
    256a:	ba 8a       	std	Y+18, r11	; 0x12
    256c:	80 91 08 04 	lds	r24, 0x0408
    2570:	90 91 09 04 	lds	r25, 0x0409
    2574:	a0 91 0a 04 	lds	r26, 0x040A
    2578:	b0 91 0b 04 	lds	r27, 0x040B
    257c:	00 97       	sbiw	r24, 0x00	; 0
    257e:	a1 05       	cpc	r26, r1
    2580:	b1 05       	cpc	r27, r1
    2582:	61 f4       	brne	.+24     	; 0x259c <UnityAssertNumbersWithin+0x7c>
    2584:	80 91 0c 04 	lds	r24, 0x040C
    2588:	90 91 0d 04 	lds	r25, 0x040D
    258c:	a0 91 0e 04 	lds	r26, 0x040E
    2590:	b0 91 0f 04 	lds	r27, 0x040F
    2594:	00 97       	sbiw	r24, 0x00	; 0
    2596:	a1 05       	cpc	r26, r1
    2598:	b1 05       	cpc	r27, r1
    259a:	09 f0       	breq	.+2      	; 0x259e <UnityAssertNumbersWithin+0x7e>
    259c:	20 c1       	rjmp	.+576    	; 0x27de <UnityAssertNumbersWithin+0x2be>
    259e:	8a a1       	ldd	r24, Y+34	; 0x22
    25a0:	9b a1       	ldd	r25, Y+35	; 0x23
    25a2:	80 71       	andi	r24, 0x10	; 16
    25a4:	99 27       	eor	r25, r25
    25a6:	00 97       	sbiw	r24, 0x00	; 0
    25a8:	09 f4       	brne	.+2      	; 0x25ac <UnityAssertNumbersWithin+0x8c>
    25aa:	61 c0       	rjmp	.+194    	; 0x266e <UnityAssertNumbersWithin+0x14e>
    25ac:	29 85       	ldd	r18, Y+9	; 0x09
    25ae:	3a 85       	ldd	r19, Y+10	; 0x0a
    25b0:	4b 85       	ldd	r20, Y+11	; 0x0b
    25b2:	5c 85       	ldd	r21, Y+12	; 0x0c
    25b4:	8d 81       	ldd	r24, Y+5	; 0x05
    25b6:	9e 81       	ldd	r25, Y+6	; 0x06
    25b8:	af 81       	ldd	r26, Y+7	; 0x07
    25ba:	b8 85       	ldd	r27, Y+8	; 0x08
    25bc:	82 17       	cp	r24, r18
    25be:	93 07       	cpc	r25, r19
    25c0:	a4 07       	cpc	r26, r20
    25c2:	b5 07       	cpc	r27, r21
    25c4:	54 f5       	brge	.+84     	; 0x261a <UnityAssertNumbersWithin+0xfa>
    25c6:	29 85       	ldd	r18, Y+9	; 0x09
    25c8:	3a 85       	ldd	r19, Y+10	; 0x0a
    25ca:	4b 85       	ldd	r20, Y+11	; 0x0b
    25cc:	5c 85       	ldd	r21, Y+12	; 0x0c
    25ce:	8d 81       	ldd	r24, Y+5	; 0x05
    25d0:	9e 81       	ldd	r25, Y+6	; 0x06
    25d2:	af 81       	ldd	r26, Y+7	; 0x07
    25d4:	b8 85       	ldd	r27, Y+8	; 0x08
    25d6:	79 01       	movw	r14, r18
    25d8:	8a 01       	movw	r16, r20
    25da:	e8 1a       	sub	r14, r24
    25dc:	f9 0a       	sbc	r15, r25
    25de:	0a 0b       	sbc	r16, r26
    25e0:	1b 0b       	sbc	r17, r27
    25e2:	d8 01       	movw	r26, r16
    25e4:	c7 01       	movw	r24, r14
    25e6:	9c 01       	movw	r18, r24
    25e8:	ad 01       	movw	r20, r26
    25ea:	61 e0       	ldi	r22, 0x01	; 1
    25ec:	89 81       	ldd	r24, Y+1	; 0x01
    25ee:	9a 81       	ldd	r25, Y+2	; 0x02
    25f0:	ab 81       	ldd	r26, Y+3	; 0x03
    25f2:	bc 81       	ldd	r27, Y+4	; 0x04
    25f4:	82 17       	cp	r24, r18
    25f6:	93 07       	cpc	r25, r19
    25f8:	a4 07       	cpc	r26, r20
    25fa:	b5 07       	cpc	r27, r21
    25fc:	08 f0       	brcs	.+2      	; 0x2600 <UnityAssertNumbersWithin+0xe0>
    25fe:	60 e0       	ldi	r22, 0x00	; 0
    2600:	86 2f       	mov	r24, r22
    2602:	90 e0       	ldi	r25, 0x00	; 0
    2604:	a0 e0       	ldi	r26, 0x00	; 0
    2606:	b0 e0       	ldi	r27, 0x00	; 0
    2608:	80 93 08 04 	sts	0x0408, r24
    260c:	90 93 09 04 	sts	0x0409, r25
    2610:	a0 93 0a 04 	sts	0x040A, r26
    2614:	b0 93 0b 04 	sts	0x040B, r27
    2618:	8a c0       	rjmp	.+276    	; 0x272e <UnityAssertNumbersWithin+0x20e>
    261a:	2d 81       	ldd	r18, Y+5	; 0x05
    261c:	3e 81       	ldd	r19, Y+6	; 0x06
    261e:	4f 81       	ldd	r20, Y+7	; 0x07
    2620:	58 85       	ldd	r21, Y+8	; 0x08
    2622:	89 85       	ldd	r24, Y+9	; 0x09
    2624:	9a 85       	ldd	r25, Y+10	; 0x0a
    2626:	ab 85       	ldd	r26, Y+11	; 0x0b
    2628:	bc 85       	ldd	r27, Y+12	; 0x0c
    262a:	79 01       	movw	r14, r18
    262c:	8a 01       	movw	r16, r20
    262e:	e8 1a       	sub	r14, r24
    2630:	f9 0a       	sbc	r15, r25
    2632:	0a 0b       	sbc	r16, r26
    2634:	1b 0b       	sbc	r17, r27
    2636:	d8 01       	movw	r26, r16
    2638:	c7 01       	movw	r24, r14
    263a:	9c 01       	movw	r18, r24
    263c:	ad 01       	movw	r20, r26
    263e:	61 e0       	ldi	r22, 0x01	; 1
    2640:	89 81       	ldd	r24, Y+1	; 0x01
    2642:	9a 81       	ldd	r25, Y+2	; 0x02
    2644:	ab 81       	ldd	r26, Y+3	; 0x03
    2646:	bc 81       	ldd	r27, Y+4	; 0x04
    2648:	82 17       	cp	r24, r18
    264a:	93 07       	cpc	r25, r19
    264c:	a4 07       	cpc	r26, r20
    264e:	b5 07       	cpc	r27, r21
    2650:	08 f0       	brcs	.+2      	; 0x2654 <UnityAssertNumbersWithin+0x134>
    2652:	60 e0       	ldi	r22, 0x00	; 0
    2654:	86 2f       	mov	r24, r22
    2656:	90 e0       	ldi	r25, 0x00	; 0
    2658:	a0 e0       	ldi	r26, 0x00	; 0
    265a:	b0 e0       	ldi	r27, 0x00	; 0
    265c:	80 93 08 04 	sts	0x0408, r24
    2660:	90 93 09 04 	sts	0x0409, r25
    2664:	a0 93 0a 04 	sts	0x040A, r26
    2668:	b0 93 0b 04 	sts	0x040B, r27
    266c:	60 c0       	rjmp	.+192    	; 0x272e <UnityAssertNumbersWithin+0x20e>
    266e:	29 85       	ldd	r18, Y+9	; 0x09
    2670:	3a 85       	ldd	r19, Y+10	; 0x0a
    2672:	4b 85       	ldd	r20, Y+11	; 0x0b
    2674:	5c 85       	ldd	r21, Y+12	; 0x0c
    2676:	8d 81       	ldd	r24, Y+5	; 0x05
    2678:	9e 81       	ldd	r25, Y+6	; 0x06
    267a:	af 81       	ldd	r26, Y+7	; 0x07
    267c:	b8 85       	ldd	r27, Y+8	; 0x08
    267e:	82 17       	cp	r24, r18
    2680:	93 07       	cpc	r25, r19
    2682:	a4 07       	cpc	r26, r20
    2684:	b5 07       	cpc	r27, r21
    2686:	50 f5       	brcc	.+84     	; 0x26dc <UnityAssertNumbersWithin+0x1bc>
    2688:	29 85       	ldd	r18, Y+9	; 0x09
    268a:	3a 85       	ldd	r19, Y+10	; 0x0a
    268c:	4b 85       	ldd	r20, Y+11	; 0x0b
    268e:	5c 85       	ldd	r21, Y+12	; 0x0c
    2690:	8d 81       	ldd	r24, Y+5	; 0x05
    2692:	9e 81       	ldd	r25, Y+6	; 0x06
    2694:	af 81       	ldd	r26, Y+7	; 0x07
    2696:	b8 85       	ldd	r27, Y+8	; 0x08
    2698:	79 01       	movw	r14, r18
    269a:	8a 01       	movw	r16, r20
    269c:	e8 1a       	sub	r14, r24
    269e:	f9 0a       	sbc	r15, r25
    26a0:	0a 0b       	sbc	r16, r26
    26a2:	1b 0b       	sbc	r17, r27
    26a4:	d8 01       	movw	r26, r16
    26a6:	c7 01       	movw	r24, r14
    26a8:	9c 01       	movw	r18, r24
    26aa:	ad 01       	movw	r20, r26
    26ac:	61 e0       	ldi	r22, 0x01	; 1
    26ae:	89 81       	ldd	r24, Y+1	; 0x01
    26b0:	9a 81       	ldd	r25, Y+2	; 0x02
    26b2:	ab 81       	ldd	r26, Y+3	; 0x03
    26b4:	bc 81       	ldd	r27, Y+4	; 0x04
    26b6:	82 17       	cp	r24, r18
    26b8:	93 07       	cpc	r25, r19
    26ba:	a4 07       	cpc	r26, r20
    26bc:	b5 07       	cpc	r27, r21
    26be:	08 f0       	brcs	.+2      	; 0x26c2 <UnityAssertNumbersWithin+0x1a2>
    26c0:	60 e0       	ldi	r22, 0x00	; 0
    26c2:	86 2f       	mov	r24, r22
    26c4:	90 e0       	ldi	r25, 0x00	; 0
    26c6:	a0 e0       	ldi	r26, 0x00	; 0
    26c8:	b0 e0       	ldi	r27, 0x00	; 0
    26ca:	80 93 08 04 	sts	0x0408, r24
    26ce:	90 93 09 04 	sts	0x0409, r25
    26d2:	a0 93 0a 04 	sts	0x040A, r26
    26d6:	b0 93 0b 04 	sts	0x040B, r27
    26da:	29 c0       	rjmp	.+82     	; 0x272e <UnityAssertNumbersWithin+0x20e>
    26dc:	2d 81       	ldd	r18, Y+5	; 0x05
    26de:	3e 81       	ldd	r19, Y+6	; 0x06
    26e0:	4f 81       	ldd	r20, Y+7	; 0x07
    26e2:	58 85       	ldd	r21, Y+8	; 0x08
    26e4:	89 85       	ldd	r24, Y+9	; 0x09
    26e6:	9a 85       	ldd	r25, Y+10	; 0x0a
    26e8:	ab 85       	ldd	r26, Y+11	; 0x0b
    26ea:	bc 85       	ldd	r27, Y+12	; 0x0c
    26ec:	79 01       	movw	r14, r18
    26ee:	8a 01       	movw	r16, r20
    26f0:	e8 1a       	sub	r14, r24
    26f2:	f9 0a       	sbc	r15, r25
    26f4:	0a 0b       	sbc	r16, r26
    26f6:	1b 0b       	sbc	r17, r27
    26f8:	d8 01       	movw	r26, r16
    26fa:	c7 01       	movw	r24, r14
    26fc:	9c 01       	movw	r18, r24
    26fe:	ad 01       	movw	r20, r26
    2700:	61 e0       	ldi	r22, 0x01	; 1
    2702:	89 81       	ldd	r24, Y+1	; 0x01
    2704:	9a 81       	ldd	r25, Y+2	; 0x02
    2706:	ab 81       	ldd	r26, Y+3	; 0x03
    2708:	bc 81       	ldd	r27, Y+4	; 0x04
    270a:	82 17       	cp	r24, r18
    270c:	93 07       	cpc	r25, r19
    270e:	a4 07       	cpc	r26, r20
    2710:	b5 07       	cpc	r27, r21
    2712:	08 f0       	brcs	.+2      	; 0x2716 <UnityAssertNumbersWithin+0x1f6>
    2714:	60 e0       	ldi	r22, 0x00	; 0
    2716:	86 2f       	mov	r24, r22
    2718:	90 e0       	ldi	r25, 0x00	; 0
    271a:	a0 e0       	ldi	r26, 0x00	; 0
    271c:	b0 e0       	ldi	r27, 0x00	; 0
    271e:	80 93 08 04 	sts	0x0408, r24
    2722:	90 93 09 04 	sts	0x0409, r25
    2726:	a0 93 0a 04 	sts	0x040A, r26
    272a:	b0 93 0b 04 	sts	0x040B, r27
    272e:	80 91 08 04 	lds	r24, 0x0408
    2732:	90 91 09 04 	lds	r25, 0x0409
    2736:	a0 91 0a 04 	lds	r26, 0x040A
    273a:	b0 91 0b 04 	lds	r27, 0x040B
    273e:	00 97       	sbiw	r24, 0x00	; 0
    2740:	a1 05       	cpc	r26, r1
    2742:	b1 05       	cpc	r27, r1
    2744:	09 f4       	brne	.+2      	; 0x2748 <UnityAssertNumbersWithin+0x228>
    2746:	4b c0       	rjmp	.+150    	; 0x27de <UnityAssertNumbersWithin+0x2be>
    2748:	8f 85       	ldd	r24, Y+15	; 0x0f
    274a:	98 89       	ldd	r25, Y+16	; 0x10
    274c:	a9 89       	ldd	r26, Y+17	; 0x11
    274e:	ba 89       	ldd	r27, Y+18	; 0x12
    2750:	bc 01       	movw	r22, r24
    2752:	cd 01       	movw	r24, r26
    2754:	0e 94 44 08 	call	0x1088	; 0x1088 <UnityTestResultsFailBegin>
    2758:	80 e5       	ldi	r24, 0x50	; 80
    275a:	92 e0       	ldi	r25, 0x02	; 2
    275c:	0e 94 54 01 	call	0x2a8	; 0x2a8 <UnityPrint>
    2760:	89 81       	ldd	r24, Y+1	; 0x01
    2762:	9a 81       	ldd	r25, Y+2	; 0x02
    2764:	ab 81       	ldd	r26, Y+3	; 0x03
    2766:	bc 81       	ldd	r27, Y+4	; 0x04
    2768:	2a a1       	ldd	r18, Y+34	; 0x22
    276a:	3b a1       	ldd	r19, Y+35	; 0x23
    276c:	a9 01       	movw	r20, r18
    276e:	bc 01       	movw	r22, r24
    2770:	cd 01       	movw	r24, r26
    2772:	0e 94 98 02 	call	0x530	; 0x530 <UnityPrintNumberByStyle>
    2776:	8c e1       	ldi	r24, 0x1C	; 28
    2778:	92 e0       	ldi	r25, 0x02	; 2
    277a:	0e 94 54 01 	call	0x2a8	; 0x2a8 <UnityPrint>
    277e:	2a a1       	ldd	r18, Y+34	; 0x22
    2780:	3b a1       	ldd	r19, Y+35	; 0x23
    2782:	8d 81       	ldd	r24, Y+5	; 0x05
    2784:	9e 81       	ldd	r25, Y+6	; 0x06
    2786:	af 81       	ldd	r26, Y+7	; 0x07
    2788:	b8 85       	ldd	r27, Y+8	; 0x08
    278a:	a9 01       	movw	r20, r18
    278c:	bc 01       	movw	r22, r24
    278e:	cd 01       	movw	r24, r26
    2790:	0e 94 98 02 	call	0x530	; 0x530 <UnityPrintNumberByStyle>
    2794:	87 e2       	ldi	r24, 0x27	; 39
    2796:	92 e0       	ldi	r25, 0x02	; 2
    2798:	0e 94 54 01 	call	0x2a8	; 0x2a8 <UnityPrint>
    279c:	2a a1       	ldd	r18, Y+34	; 0x22
    279e:	3b a1       	ldd	r19, Y+35	; 0x23
    27a0:	89 85       	ldd	r24, Y+9	; 0x09
    27a2:	9a 85       	ldd	r25, Y+10	; 0x0a
    27a4:	ab 85       	ldd	r26, Y+11	; 0x0b
    27a6:	bc 85       	ldd	r27, Y+12	; 0x0c
    27a8:	a9 01       	movw	r20, r18
    27aa:	bc 01       	movw	r22, r24
    27ac:	cd 01       	movw	r24, r26
    27ae:	0e 94 98 02 	call	0x530	; 0x530 <UnityPrintNumberByStyle>
    27b2:	8d 85       	ldd	r24, Y+13	; 0x0d
    27b4:	9e 85       	ldd	r25, Y+14	; 0x0e
    27b6:	0e 94 e4 08 	call	0x11c8	; 0x11c8 <UnityAddMsgIfSpecified>
    27ba:	81 e0       	ldi	r24, 0x01	; 1
    27bc:	90 e0       	ldi	r25, 0x00	; 0
    27be:	a0 e0       	ldi	r26, 0x00	; 0
    27c0:	b0 e0       	ldi	r27, 0x00	; 0
    27c2:	80 93 08 04 	sts	0x0408, r24
    27c6:	90 93 09 04 	sts	0x0409, r25
    27ca:	a0 93 0a 04 	sts	0x040A, r26
    27ce:	b0 93 0b 04 	sts	0x040B, r27
    27d2:	61 e0       	ldi	r22, 0x01	; 1
    27d4:	70 e0       	ldi	r23, 0x00	; 0
    27d6:	80 e1       	ldi	r24, 0x10	; 16
    27d8:	94 e0       	ldi	r25, 0x04	; 4
    27da:	0e 94 03 1e 	call	0x3c06	; 0x3c06 <longjmp>
    27de:	62 96       	adiw	r28, 0x12	; 18
    27e0:	0f b6       	in	r0, 0x3f	; 63
    27e2:	f8 94       	cli
    27e4:	de bf       	out	0x3e, r29	; 62
    27e6:	0f be       	out	0x3f, r0	; 63
    27e8:	cd bf       	out	0x3d, r28	; 61
    27ea:	df 91       	pop	r29
    27ec:	cf 91       	pop	r28
    27ee:	1f 91       	pop	r17
    27f0:	0f 91       	pop	r16
    27f2:	ff 90       	pop	r15
    27f4:	ef 90       	pop	r14
    27f6:	df 90       	pop	r13
    27f8:	cf 90       	pop	r12
    27fa:	bf 90       	pop	r11
    27fc:	af 90       	pop	r10
    27fe:	9f 90       	pop	r9
    2800:	8f 90       	pop	r8
    2802:	08 95       	ret

00002804 <UnityAssertEqualString>:
    2804:	0f 93       	push	r16
    2806:	1f 93       	push	r17
    2808:	cf 93       	push	r28
    280a:	df 93       	push	r29
    280c:	cd b7       	in	r28, 0x3d	; 61
    280e:	de b7       	in	r29, 0x3e	; 62
    2810:	2e 97       	sbiw	r28, 0x0e	; 14
    2812:	0f b6       	in	r0, 0x3f	; 63
    2814:	f8 94       	cli
    2816:	de bf       	out	0x3e, r29	; 62
    2818:	0f be       	out	0x3f, r0	; 63
    281a:	cd bf       	out	0x3d, r28	; 61
    281c:	9e 83       	std	Y+6, r25	; 0x06
    281e:	8d 83       	std	Y+5, r24	; 0x05
    2820:	78 87       	std	Y+8, r23	; 0x08
    2822:	6f 83       	std	Y+7, r22	; 0x07
    2824:	5a 87       	std	Y+10, r21	; 0x0a
    2826:	49 87       	std	Y+9, r20	; 0x09
    2828:	0b 87       	std	Y+11, r16	; 0x0b
    282a:	1c 87       	std	Y+12, r17	; 0x0c
    282c:	2d 87       	std	Y+13, r18	; 0x0d
    282e:	3e 87       	std	Y+14, r19	; 0x0e
    2830:	80 91 08 04 	lds	r24, 0x0408
    2834:	90 91 09 04 	lds	r25, 0x0409
    2838:	a0 91 0a 04 	lds	r26, 0x040A
    283c:	b0 91 0b 04 	lds	r27, 0x040B
    2840:	00 97       	sbiw	r24, 0x00	; 0
    2842:	a1 05       	cpc	r26, r1
    2844:	b1 05       	cpc	r27, r1
    2846:	61 f4       	brne	.+24     	; 0x2860 <UnityAssertEqualString+0x5c>
    2848:	80 91 0c 04 	lds	r24, 0x040C
    284c:	90 91 0d 04 	lds	r25, 0x040D
    2850:	a0 91 0e 04 	lds	r26, 0x040E
    2854:	b0 91 0f 04 	lds	r27, 0x040F
    2858:	00 97       	sbiw	r24, 0x00	; 0
    285a:	a1 05       	cpc	r26, r1
    285c:	b1 05       	cpc	r27, r1
    285e:	09 f0       	breq	.+2      	; 0x2862 <UnityAssertEqualString+0x5e>
    2860:	92 c0       	rjmp	.+292    	; 0x2986 <UnityAssertEqualString+0x182>
    2862:	8d 81       	ldd	r24, Y+5	; 0x05
    2864:	9e 81       	ldd	r25, Y+6	; 0x06
    2866:	00 97       	sbiw	r24, 0x00	; 0
    2868:	09 f4       	brne	.+2      	; 0x286c <UnityAssertEqualString+0x68>
    286a:	49 c0       	rjmp	.+146    	; 0x28fe <UnityAssertEqualString+0xfa>
    286c:	8f 81       	ldd	r24, Y+7	; 0x07
    286e:	98 85       	ldd	r25, Y+8	; 0x08
    2870:	00 97       	sbiw	r24, 0x00	; 0
    2872:	09 f4       	brne	.+2      	; 0x2876 <UnityAssertEqualString+0x72>
    2874:	44 c0       	rjmp	.+136    	; 0x28fe <UnityAssertEqualString+0xfa>
    2876:	19 82       	std	Y+1, r1	; 0x01
    2878:	1a 82       	std	Y+2, r1	; 0x02
    287a:	1b 82       	std	Y+3, r1	; 0x03
    287c:	1c 82       	std	Y+4, r1	; 0x04
    287e:	2a c0       	rjmp	.+84     	; 0x28d4 <UnityAssertEqualString+0xd0>
    2880:	89 81       	ldd	r24, Y+1	; 0x01
    2882:	9a 81       	ldd	r25, Y+2	; 0x02
    2884:	2d 81       	ldd	r18, Y+5	; 0x05
    2886:	3e 81       	ldd	r19, Y+6	; 0x06
    2888:	82 0f       	add	r24, r18
    288a:	93 1f       	adc	r25, r19
    288c:	fc 01       	movw	r30, r24
    288e:	40 81       	ld	r20, Z
    2890:	89 81       	ldd	r24, Y+1	; 0x01
    2892:	9a 81       	ldd	r25, Y+2	; 0x02
    2894:	2f 81       	ldd	r18, Y+7	; 0x07
    2896:	38 85       	ldd	r19, Y+8	; 0x08
    2898:	82 0f       	add	r24, r18
    289a:	93 1f       	adc	r25, r19
    289c:	fc 01       	movw	r30, r24
    289e:	80 81       	ld	r24, Z
    28a0:	48 17       	cp	r20, r24
    28a2:	69 f0       	breq	.+26     	; 0x28be <UnityAssertEqualString+0xba>
    28a4:	81 e0       	ldi	r24, 0x01	; 1
    28a6:	90 e0       	ldi	r25, 0x00	; 0
    28a8:	a0 e0       	ldi	r26, 0x00	; 0
    28aa:	b0 e0       	ldi	r27, 0x00	; 0
    28ac:	80 93 08 04 	sts	0x0408, r24
    28b0:	90 93 09 04 	sts	0x0409, r25
    28b4:	a0 93 0a 04 	sts	0x040A, r26
    28b8:	b0 93 0b 04 	sts	0x040B, r27
    28bc:	1f c0       	rjmp	.+62     	; 0x28fc <UnityAssertEqualString+0xf8>
    28be:	89 81       	ldd	r24, Y+1	; 0x01
    28c0:	9a 81       	ldd	r25, Y+2	; 0x02
    28c2:	ab 81       	ldd	r26, Y+3	; 0x03
    28c4:	bc 81       	ldd	r27, Y+4	; 0x04
    28c6:	01 96       	adiw	r24, 0x01	; 1
    28c8:	a1 1d       	adc	r26, r1
    28ca:	b1 1d       	adc	r27, r1
    28cc:	89 83       	std	Y+1, r24	; 0x01
    28ce:	9a 83       	std	Y+2, r25	; 0x02
    28d0:	ab 83       	std	Y+3, r26	; 0x03
    28d2:	bc 83       	std	Y+4, r27	; 0x04
    28d4:	89 81       	ldd	r24, Y+1	; 0x01
    28d6:	9a 81       	ldd	r25, Y+2	; 0x02
    28d8:	2d 81       	ldd	r18, Y+5	; 0x05
    28da:	3e 81       	ldd	r19, Y+6	; 0x06
    28dc:	82 0f       	add	r24, r18
    28de:	93 1f       	adc	r25, r19
    28e0:	fc 01       	movw	r30, r24
    28e2:	80 81       	ld	r24, Z
    28e4:	88 23       	and	r24, r24
    28e6:	61 f6       	brne	.-104    	; 0x2880 <UnityAssertEqualString+0x7c>
    28e8:	89 81       	ldd	r24, Y+1	; 0x01
    28ea:	9a 81       	ldd	r25, Y+2	; 0x02
    28ec:	2f 81       	ldd	r18, Y+7	; 0x07
    28ee:	38 85       	ldd	r19, Y+8	; 0x08
    28f0:	82 0f       	add	r24, r18
    28f2:	93 1f       	adc	r25, r19
    28f4:	fc 01       	movw	r30, r24
    28f6:	80 81       	ld	r24, Z
    28f8:	88 23       	and	r24, r24
    28fa:	11 f6       	brne	.-124    	; 0x2880 <UnityAssertEqualString+0x7c>
    28fc:	13 c0       	rjmp	.+38     	; 0x2924 <UnityAssertEqualString+0x120>
    28fe:	2d 81       	ldd	r18, Y+5	; 0x05
    2900:	3e 81       	ldd	r19, Y+6	; 0x06
    2902:	8f 81       	ldd	r24, Y+7	; 0x07
    2904:	98 85       	ldd	r25, Y+8	; 0x08
    2906:	28 17       	cp	r18, r24
    2908:	39 07       	cpc	r19, r25
    290a:	61 f0       	breq	.+24     	; 0x2924 <UnityAssertEqualString+0x120>
    290c:	81 e0       	ldi	r24, 0x01	; 1
    290e:	90 e0       	ldi	r25, 0x00	; 0
    2910:	a0 e0       	ldi	r26, 0x00	; 0
    2912:	b0 e0       	ldi	r27, 0x00	; 0
    2914:	80 93 08 04 	sts	0x0408, r24
    2918:	90 93 09 04 	sts	0x0409, r25
    291c:	a0 93 0a 04 	sts	0x040A, r26
    2920:	b0 93 0b 04 	sts	0x040B, r27
    2924:	80 91 08 04 	lds	r24, 0x0408
    2928:	90 91 09 04 	lds	r25, 0x0409
    292c:	a0 91 0a 04 	lds	r26, 0x040A
    2930:	b0 91 0b 04 	lds	r27, 0x040B
    2934:	00 97       	sbiw	r24, 0x00	; 0
    2936:	a1 05       	cpc	r26, r1
    2938:	b1 05       	cpc	r27, r1
    293a:	29 f1       	breq	.+74     	; 0x2986 <UnityAssertEqualString+0x182>
    293c:	8b 85       	ldd	r24, Y+11	; 0x0b
    293e:	9c 85       	ldd	r25, Y+12	; 0x0c
    2940:	ad 85       	ldd	r26, Y+13	; 0x0d
    2942:	be 85       	ldd	r27, Y+14	; 0x0e
    2944:	bc 01       	movw	r22, r24
    2946:	cd 01       	movw	r24, r26
    2948:	0e 94 44 08 	call	0x1088	; 0x1088 <UnityTestResultsFailBegin>
    294c:	2f 81       	ldd	r18, Y+7	; 0x07
    294e:	38 85       	ldd	r19, Y+8	; 0x08
    2950:	8d 81       	ldd	r24, Y+5	; 0x05
    2952:	9e 81       	ldd	r25, Y+6	; 0x06
    2954:	b9 01       	movw	r22, r18
    2956:	0e 94 21 09 	call	0x1242	; 0x1242 <UnityPrintExpectedAndActualStrings>
    295a:	89 85       	ldd	r24, Y+9	; 0x09
    295c:	9a 85       	ldd	r25, Y+10	; 0x0a
    295e:	0e 94 e4 08 	call	0x11c8	; 0x11c8 <UnityAddMsgIfSpecified>
    2962:	81 e0       	ldi	r24, 0x01	; 1
    2964:	90 e0       	ldi	r25, 0x00	; 0
    2966:	a0 e0       	ldi	r26, 0x00	; 0
    2968:	b0 e0       	ldi	r27, 0x00	; 0
    296a:	80 93 08 04 	sts	0x0408, r24
    296e:	90 93 09 04 	sts	0x0409, r25
    2972:	a0 93 0a 04 	sts	0x040A, r26
    2976:	b0 93 0b 04 	sts	0x040B, r27
    297a:	61 e0       	ldi	r22, 0x01	; 1
    297c:	70 e0       	ldi	r23, 0x00	; 0
    297e:	80 e1       	ldi	r24, 0x10	; 16
    2980:	94 e0       	ldi	r25, 0x04	; 4
    2982:	0e 94 03 1e 	call	0x3c06	; 0x3c06 <longjmp>
    2986:	2e 96       	adiw	r28, 0x0e	; 14
    2988:	0f b6       	in	r0, 0x3f	; 63
    298a:	f8 94       	cli
    298c:	de bf       	out	0x3e, r29	; 62
    298e:	0f be       	out	0x3f, r0	; 63
    2990:	cd bf       	out	0x3d, r28	; 61
    2992:	df 91       	pop	r29
    2994:	cf 91       	pop	r28
    2996:	1f 91       	pop	r17
    2998:	0f 91       	pop	r16
    299a:	08 95       	ret

0000299c <UnityAssertEqualStringLen>:
    299c:	cf 92       	push	r12
    299e:	df 92       	push	r13
    29a0:	ef 92       	push	r14
    29a2:	ff 92       	push	r15
    29a4:	0f 93       	push	r16
    29a6:	1f 93       	push	r17
    29a8:	cf 93       	push	r28
    29aa:	df 93       	push	r29
    29ac:	cd b7       	in	r28, 0x3d	; 61
    29ae:	de b7       	in	r29, 0x3e	; 62
    29b0:	62 97       	sbiw	r28, 0x12	; 18
    29b2:	0f b6       	in	r0, 0x3f	; 63
    29b4:	f8 94       	cli
    29b6:	de bf       	out	0x3e, r29	; 62
    29b8:	0f be       	out	0x3f, r0	; 63
    29ba:	cd bf       	out	0x3d, r28	; 61
    29bc:	9e 83       	std	Y+6, r25	; 0x06
    29be:	8d 83       	std	Y+5, r24	; 0x05
    29c0:	78 87       	std	Y+8, r23	; 0x08
    29c2:	6f 83       	std	Y+7, r22	; 0x07
    29c4:	29 87       	std	Y+9, r18	; 0x09
    29c6:	3a 87       	std	Y+10, r19	; 0x0a
    29c8:	4b 87       	std	Y+11, r20	; 0x0b
    29ca:	5c 87       	std	Y+12, r21	; 0x0c
    29cc:	1e 87       	std	Y+14, r17	; 0x0e
    29ce:	0d 87       	std	Y+13, r16	; 0x0d
    29d0:	cf 86       	std	Y+15, r12	; 0x0f
    29d2:	d8 8a       	std	Y+16, r13	; 0x10
    29d4:	e9 8a       	std	Y+17, r14	; 0x11
    29d6:	fa 8a       	std	Y+18, r15	; 0x12
    29d8:	80 91 08 04 	lds	r24, 0x0408
    29dc:	90 91 09 04 	lds	r25, 0x0409
    29e0:	a0 91 0a 04 	lds	r26, 0x040A
    29e4:	b0 91 0b 04 	lds	r27, 0x040B
    29e8:	00 97       	sbiw	r24, 0x00	; 0
    29ea:	a1 05       	cpc	r26, r1
    29ec:	b1 05       	cpc	r27, r1
    29ee:	61 f4       	brne	.+24     	; 0x2a08 <UnityAssertEqualStringLen+0x6c>
    29f0:	80 91 0c 04 	lds	r24, 0x040C
    29f4:	90 91 0d 04 	lds	r25, 0x040D
    29f8:	a0 91 0e 04 	lds	r26, 0x040E
    29fc:	b0 91 0f 04 	lds	r27, 0x040F
    2a00:	00 97       	sbiw	r24, 0x00	; 0
    2a02:	a1 05       	cpc	r26, r1
    2a04:	b1 05       	cpc	r27, r1
    2a06:	09 f0       	breq	.+2      	; 0x2a0a <UnityAssertEqualStringLen+0x6e>
    2a08:	a7 c0       	rjmp	.+334    	; 0x2b58 <UnityAssertEqualStringLen+0x1bc>
    2a0a:	8d 81       	ldd	r24, Y+5	; 0x05
    2a0c:	9e 81       	ldd	r25, Y+6	; 0x06
    2a0e:	00 97       	sbiw	r24, 0x00	; 0
    2a10:	09 f4       	brne	.+2      	; 0x2a14 <UnityAssertEqualStringLen+0x78>
    2a12:	58 c0       	rjmp	.+176    	; 0x2ac4 <UnityAssertEqualStringLen+0x128>
    2a14:	8f 81       	ldd	r24, Y+7	; 0x07
    2a16:	98 85       	ldd	r25, Y+8	; 0x08
    2a18:	00 97       	sbiw	r24, 0x00	; 0
    2a1a:	09 f4       	brne	.+2      	; 0x2a1e <UnityAssertEqualStringLen+0x82>
    2a1c:	53 c0       	rjmp	.+166    	; 0x2ac4 <UnityAssertEqualStringLen+0x128>
    2a1e:	19 82       	std	Y+1, r1	; 0x01
    2a20:	1a 82       	std	Y+2, r1	; 0x02
    2a22:	1b 82       	std	Y+3, r1	; 0x03
    2a24:	1c 82       	std	Y+4, r1	; 0x04
    2a26:	2a c0       	rjmp	.+84     	; 0x2a7c <UnityAssertEqualStringLen+0xe0>
    2a28:	89 81       	ldd	r24, Y+1	; 0x01
    2a2a:	9a 81       	ldd	r25, Y+2	; 0x02
    2a2c:	2d 81       	ldd	r18, Y+5	; 0x05
    2a2e:	3e 81       	ldd	r19, Y+6	; 0x06
    2a30:	82 0f       	add	r24, r18
    2a32:	93 1f       	adc	r25, r19
    2a34:	fc 01       	movw	r30, r24
    2a36:	40 81       	ld	r20, Z
    2a38:	89 81       	ldd	r24, Y+1	; 0x01
    2a3a:	9a 81       	ldd	r25, Y+2	; 0x02
    2a3c:	2f 81       	ldd	r18, Y+7	; 0x07
    2a3e:	38 85       	ldd	r19, Y+8	; 0x08
    2a40:	82 0f       	add	r24, r18
    2a42:	93 1f       	adc	r25, r19
    2a44:	fc 01       	movw	r30, r24
    2a46:	80 81       	ld	r24, Z
    2a48:	48 17       	cp	r20, r24
    2a4a:	69 f0       	breq	.+26     	; 0x2a66 <UnityAssertEqualStringLen+0xca>
    2a4c:	81 e0       	ldi	r24, 0x01	; 1
    2a4e:	90 e0       	ldi	r25, 0x00	; 0
    2a50:	a0 e0       	ldi	r26, 0x00	; 0
    2a52:	b0 e0       	ldi	r27, 0x00	; 0
    2a54:	80 93 08 04 	sts	0x0408, r24
    2a58:	90 93 09 04 	sts	0x0409, r25
    2a5c:	a0 93 0a 04 	sts	0x040A, r26
    2a60:	b0 93 0b 04 	sts	0x040B, r27
    2a64:	2e c0       	rjmp	.+92     	; 0x2ac2 <UnityAssertEqualStringLen+0x126>
    2a66:	89 81       	ldd	r24, Y+1	; 0x01
    2a68:	9a 81       	ldd	r25, Y+2	; 0x02
    2a6a:	ab 81       	ldd	r26, Y+3	; 0x03
    2a6c:	bc 81       	ldd	r27, Y+4	; 0x04
    2a6e:	01 96       	adiw	r24, 0x01	; 1
    2a70:	a1 1d       	adc	r26, r1
    2a72:	b1 1d       	adc	r27, r1
    2a74:	89 83       	std	Y+1, r24	; 0x01
    2a76:	9a 83       	std	Y+2, r25	; 0x02
    2a78:	ab 83       	std	Y+3, r26	; 0x03
    2a7a:	bc 83       	std	Y+4, r27	; 0x04
    2a7c:	29 81       	ldd	r18, Y+1	; 0x01
    2a7e:	3a 81       	ldd	r19, Y+2	; 0x02
    2a80:	4b 81       	ldd	r20, Y+3	; 0x03
    2a82:	5c 81       	ldd	r21, Y+4	; 0x04
    2a84:	89 85       	ldd	r24, Y+9	; 0x09
    2a86:	9a 85       	ldd	r25, Y+10	; 0x0a
    2a88:	ab 85       	ldd	r26, Y+11	; 0x0b
    2a8a:	bc 85       	ldd	r27, Y+12	; 0x0c
    2a8c:	28 17       	cp	r18, r24
    2a8e:	39 07       	cpc	r19, r25
    2a90:	4a 07       	cpc	r20, r26
    2a92:	5b 07       	cpc	r21, r27
    2a94:	b0 f4       	brcc	.+44     	; 0x2ac2 <UnityAssertEqualStringLen+0x126>
    2a96:	89 81       	ldd	r24, Y+1	; 0x01
    2a98:	9a 81       	ldd	r25, Y+2	; 0x02
    2a9a:	2d 81       	ldd	r18, Y+5	; 0x05
    2a9c:	3e 81       	ldd	r19, Y+6	; 0x06
    2a9e:	82 0f       	add	r24, r18
    2aa0:	93 1f       	adc	r25, r19
    2aa2:	fc 01       	movw	r30, r24
    2aa4:	80 81       	ld	r24, Z
    2aa6:	88 23       	and	r24, r24
    2aa8:	09 f0       	breq	.+2      	; 0x2aac <UnityAssertEqualStringLen+0x110>
    2aaa:	be cf       	rjmp	.-132    	; 0x2a28 <UnityAssertEqualStringLen+0x8c>
    2aac:	89 81       	ldd	r24, Y+1	; 0x01
    2aae:	9a 81       	ldd	r25, Y+2	; 0x02
    2ab0:	2f 81       	ldd	r18, Y+7	; 0x07
    2ab2:	38 85       	ldd	r19, Y+8	; 0x08
    2ab4:	82 0f       	add	r24, r18
    2ab6:	93 1f       	adc	r25, r19
    2ab8:	fc 01       	movw	r30, r24
    2aba:	80 81       	ld	r24, Z
    2abc:	88 23       	and	r24, r24
    2abe:	09 f0       	breq	.+2      	; 0x2ac2 <UnityAssertEqualStringLen+0x126>
    2ac0:	b3 cf       	rjmp	.-154    	; 0x2a28 <UnityAssertEqualStringLen+0x8c>
    2ac2:	13 c0       	rjmp	.+38     	; 0x2aea <UnityAssertEqualStringLen+0x14e>
    2ac4:	2d 81       	ldd	r18, Y+5	; 0x05
    2ac6:	3e 81       	ldd	r19, Y+6	; 0x06
    2ac8:	8f 81       	ldd	r24, Y+7	; 0x07
    2aca:	98 85       	ldd	r25, Y+8	; 0x08
    2acc:	28 17       	cp	r18, r24
    2ace:	39 07       	cpc	r19, r25
    2ad0:	61 f0       	breq	.+24     	; 0x2aea <UnityAssertEqualStringLen+0x14e>
    2ad2:	81 e0       	ldi	r24, 0x01	; 1
    2ad4:	90 e0       	ldi	r25, 0x00	; 0
    2ad6:	a0 e0       	ldi	r26, 0x00	; 0
    2ad8:	b0 e0       	ldi	r27, 0x00	; 0
    2ada:	80 93 08 04 	sts	0x0408, r24
    2ade:	90 93 09 04 	sts	0x0409, r25
    2ae2:	a0 93 0a 04 	sts	0x040A, r26
    2ae6:	b0 93 0b 04 	sts	0x040B, r27
    2aea:	80 91 08 04 	lds	r24, 0x0408
    2aee:	90 91 09 04 	lds	r25, 0x0409
    2af2:	a0 91 0a 04 	lds	r26, 0x040A
    2af6:	b0 91 0b 04 	lds	r27, 0x040B
    2afa:	00 97       	sbiw	r24, 0x00	; 0
    2afc:	a1 05       	cpc	r26, r1
    2afe:	b1 05       	cpc	r27, r1
    2b00:	59 f1       	breq	.+86     	; 0x2b58 <UnityAssertEqualStringLen+0x1bc>
    2b02:	8f 85       	ldd	r24, Y+15	; 0x0f
    2b04:	98 89       	ldd	r25, Y+16	; 0x10
    2b06:	a9 89       	ldd	r26, Y+17	; 0x11
    2b08:	ba 89       	ldd	r27, Y+18	; 0x12
    2b0a:	bc 01       	movw	r22, r24
    2b0c:	cd 01       	movw	r24, r26
    2b0e:	0e 94 44 08 	call	0x1088	; 0x1088 <UnityTestResultsFailBegin>
    2b12:	89 85       	ldd	r24, Y+9	; 0x09
    2b14:	9a 85       	ldd	r25, Y+10	; 0x0a
    2b16:	ab 85       	ldd	r26, Y+11	; 0x0b
    2b18:	bc 85       	ldd	r27, Y+12	; 0x0c
    2b1a:	6f 81       	ldd	r22, Y+7	; 0x07
    2b1c:	78 85       	ldd	r23, Y+8	; 0x08
    2b1e:	ed 81       	ldd	r30, Y+5	; 0x05
    2b20:	fe 81       	ldd	r31, Y+6	; 0x06
    2b22:	9c 01       	movw	r18, r24
    2b24:	ad 01       	movw	r20, r26
    2b26:	cf 01       	movw	r24, r30
    2b28:	0e 94 78 09 	call	0x12f0	; 0x12f0 <UnityPrintExpectedAndActualStringsLen>
    2b2c:	8d 85       	ldd	r24, Y+13	; 0x0d
    2b2e:	9e 85       	ldd	r25, Y+14	; 0x0e
    2b30:	0e 94 e4 08 	call	0x11c8	; 0x11c8 <UnityAddMsgIfSpecified>
    2b34:	81 e0       	ldi	r24, 0x01	; 1
    2b36:	90 e0       	ldi	r25, 0x00	; 0
    2b38:	a0 e0       	ldi	r26, 0x00	; 0
    2b3a:	b0 e0       	ldi	r27, 0x00	; 0
    2b3c:	80 93 08 04 	sts	0x0408, r24
    2b40:	90 93 09 04 	sts	0x0409, r25
    2b44:	a0 93 0a 04 	sts	0x040A, r26
    2b48:	b0 93 0b 04 	sts	0x040B, r27
    2b4c:	61 e0       	ldi	r22, 0x01	; 1
    2b4e:	70 e0       	ldi	r23, 0x00	; 0
    2b50:	80 e1       	ldi	r24, 0x10	; 16
    2b52:	94 e0       	ldi	r25, 0x04	; 4
    2b54:	0e 94 03 1e 	call	0x3c06	; 0x3c06 <longjmp>
    2b58:	62 96       	adiw	r28, 0x12	; 18
    2b5a:	0f b6       	in	r0, 0x3f	; 63
    2b5c:	f8 94       	cli
    2b5e:	de bf       	out	0x3e, r29	; 62
    2b60:	0f be       	out	0x3f, r0	; 63
    2b62:	cd bf       	out	0x3d, r28	; 61
    2b64:	df 91       	pop	r29
    2b66:	cf 91       	pop	r28
    2b68:	1f 91       	pop	r17
    2b6a:	0f 91       	pop	r16
    2b6c:	ff 90       	pop	r15
    2b6e:	ef 90       	pop	r14
    2b70:	df 90       	pop	r13
    2b72:	cf 90       	pop	r12
    2b74:	08 95       	ret

00002b76 <UnityAssertEqualStringArray>:
    2b76:	af 92       	push	r10
    2b78:	bf 92       	push	r11
    2b7a:	cf 92       	push	r12
    2b7c:	df 92       	push	r13
    2b7e:	ef 92       	push	r14
    2b80:	ff 92       	push	r15
    2b82:	0f 93       	push	r16
    2b84:	1f 93       	push	r17
    2b86:	cf 93       	push	r28
    2b88:	df 93       	push	r29
    2b8a:	cd b7       	in	r28, 0x3d	; 61
    2b8c:	de b7       	in	r29, 0x3e	; 62
    2b8e:	6c 97       	sbiw	r28, 0x1c	; 28
    2b90:	0f b6       	in	r0, 0x3f	; 63
    2b92:	f8 94       	cli
    2b94:	de bf       	out	0x3e, r29	; 62
    2b96:	0f be       	out	0x3f, r0	; 63
    2b98:	cd bf       	out	0x3d, r28	; 61
    2b9a:	9e 87       	std	Y+14, r25	; 0x0e
    2b9c:	8d 87       	std	Y+13, r24	; 0x0d
    2b9e:	78 8b       	std	Y+16, r23	; 0x10
    2ba0:	6f 87       	std	Y+15, r22	; 0x0f
    2ba2:	29 8b       	std	Y+17, r18	; 0x11
    2ba4:	3a 8b       	std	Y+18, r19	; 0x12
    2ba6:	4b 8b       	std	Y+19, r20	; 0x13
    2ba8:	5c 8b       	std	Y+20, r21	; 0x14
    2baa:	1e 8b       	std	Y+22, r17	; 0x16
    2bac:	0d 8b       	std	Y+21, r16	; 0x15
    2bae:	cf 8a       	std	Y+23, r12	; 0x17
    2bb0:	d8 8e       	std	Y+24, r13	; 0x18
    2bb2:	e9 8e       	std	Y+25, r14	; 0x19
    2bb4:	fa 8e       	std	Y+26, r15	; 0x1a
    2bb6:	bc 8e       	std	Y+28, r11	; 0x1c
    2bb8:	ab 8e       	std	Y+27, r10	; 0x1b
    2bba:	19 82       	std	Y+1, r1	; 0x01
    2bbc:	1a 82       	std	Y+2, r1	; 0x02
    2bbe:	1b 82       	std	Y+3, r1	; 0x03
    2bc0:	1c 82       	std	Y+4, r1	; 0x04
    2bc2:	1d 82       	std	Y+5, r1	; 0x05
    2bc4:	1e 82       	std	Y+6, r1	; 0x06
    2bc6:	1f 82       	std	Y+7, r1	; 0x07
    2bc8:	18 86       	std	Y+8, r1	; 0x08
    2bca:	1a 86       	std	Y+10, r1	; 0x0a
    2bcc:	19 86       	std	Y+9, r1	; 0x09
    2bce:	1c 86       	std	Y+12, r1	; 0x0c
    2bd0:	1b 86       	std	Y+11, r1	; 0x0b
    2bd2:	80 91 08 04 	lds	r24, 0x0408
    2bd6:	90 91 09 04 	lds	r25, 0x0409
    2bda:	a0 91 0a 04 	lds	r26, 0x040A
    2bde:	b0 91 0b 04 	lds	r27, 0x040B
    2be2:	00 97       	sbiw	r24, 0x00	; 0
    2be4:	a1 05       	cpc	r26, r1
    2be6:	b1 05       	cpc	r27, r1
    2be8:	61 f4       	brne	.+24     	; 0x2c02 <UnityAssertEqualStringArray+0x8c>
    2bea:	80 91 0c 04 	lds	r24, 0x040C
    2bee:	90 91 0d 04 	lds	r25, 0x040D
    2bf2:	a0 91 0e 04 	lds	r26, 0x040E
    2bf6:	b0 91 0f 04 	lds	r27, 0x040F
    2bfa:	00 97       	sbiw	r24, 0x00	; 0
    2bfc:	a1 05       	cpc	r26, r1
    2bfe:	b1 05       	cpc	r27, r1
    2c00:	09 f0       	breq	.+2      	; 0x2c04 <UnityAssertEqualStringArray+0x8e>
    2c02:	3e c1       	rjmp	.+636    	; 0x2e80 <UnityAssertEqualStringArray+0x30a>
    2c04:	89 89       	ldd	r24, Y+17	; 0x11
    2c06:	9a 89       	ldd	r25, Y+18	; 0x12
    2c08:	ab 89       	ldd	r26, Y+19	; 0x13
    2c0a:	bc 89       	ldd	r27, Y+20	; 0x14
    2c0c:	00 97       	sbiw	r24, 0x00	; 0
    2c0e:	a1 05       	cpc	r26, r1
    2c10:	b1 05       	cpc	r27, r1
    2c12:	11 f5       	brne	.+68     	; 0x2c58 <UnityAssertEqualStringArray+0xe2>
    2c14:	8f 89       	ldd	r24, Y+23	; 0x17
    2c16:	98 8d       	ldd	r25, Y+24	; 0x18
    2c18:	a9 8d       	ldd	r26, Y+25	; 0x19
    2c1a:	ba 8d       	ldd	r27, Y+26	; 0x1a
    2c1c:	bc 01       	movw	r22, r24
    2c1e:	cd 01       	movw	r24, r26
    2c20:	0e 94 44 08 	call	0x1088	; 0x1088 <UnityTestResultsFailBegin>
    2c24:	8a e6       	ldi	r24, 0x6A	; 106
    2c26:	92 e0       	ldi	r25, 0x02	; 2
    2c28:	0e 94 54 01 	call	0x2a8	; 0x2a8 <UnityPrint>
    2c2c:	8d 89       	ldd	r24, Y+21	; 0x15
    2c2e:	9e 89       	ldd	r25, Y+22	; 0x16
    2c30:	0e 94 e4 08 	call	0x11c8	; 0x11c8 <UnityAddMsgIfSpecified>
    2c34:	81 e0       	ldi	r24, 0x01	; 1
    2c36:	90 e0       	ldi	r25, 0x00	; 0
    2c38:	a0 e0       	ldi	r26, 0x00	; 0
    2c3a:	b0 e0       	ldi	r27, 0x00	; 0
    2c3c:	80 93 08 04 	sts	0x0408, r24
    2c40:	90 93 09 04 	sts	0x0409, r25
    2c44:	a0 93 0a 04 	sts	0x040A, r26
    2c48:	b0 93 0b 04 	sts	0x040B, r27
    2c4c:	61 e0       	ldi	r22, 0x01	; 1
    2c4e:	70 e0       	ldi	r23, 0x00	; 0
    2c50:	80 e1       	ldi	r24, 0x10	; 16
    2c52:	94 e0       	ldi	r25, 0x04	; 4
    2c54:	0e 94 03 1e 	call	0x3c06	; 0x3c06 <longjmp>
    2c58:	2d 85       	ldd	r18, Y+13	; 0x0d
    2c5a:	3e 85       	ldd	r19, Y+14	; 0x0e
    2c5c:	8f 85       	ldd	r24, Y+15	; 0x0f
    2c5e:	98 89       	ldd	r25, Y+16	; 0x10
    2c60:	28 17       	cp	r18, r24
    2c62:	39 07       	cpc	r19, r25
    2c64:	09 f4       	brne	.+2      	; 0x2c68 <UnityAssertEqualStringArray+0xf2>
    2c66:	0c c1       	rjmp	.+536    	; 0x2e80 <UnityAssertEqualStringArray+0x30a>
    2c68:	2d 89       	ldd	r18, Y+21	; 0x15
    2c6a:	3e 89       	ldd	r19, Y+22	; 0x16
    2c6c:	8f 89       	ldd	r24, Y+23	; 0x17
    2c6e:	98 8d       	ldd	r25, Y+24	; 0x18
    2c70:	a9 8d       	ldd	r26, Y+25	; 0x19
    2c72:	ba 8d       	ldd	r27, Y+26	; 0x1a
    2c74:	6f 85       	ldd	r22, Y+15	; 0x0f
    2c76:	78 89       	ldd	r23, Y+16	; 0x10
    2c78:	ed 85       	ldd	r30, Y+13	; 0x0d
    2c7a:	fe 85       	ldd	r31, Y+14	; 0x0e
    2c7c:	89 01       	movw	r16, r18
    2c7e:	9c 01       	movw	r18, r24
    2c80:	ad 01       	movw	r20, r26
    2c82:	cf 01       	movw	r24, r30
    2c84:	0e 94 e7 09 	call	0x13ce	; 0x13ce <UnityIsOneArrayNull>
    2c88:	00 97       	sbiw	r24, 0x00	; 0
    2c8a:	91 f0       	breq	.+36     	; 0x2cb0 <UnityAssertEqualStringArray+0x13a>
    2c8c:	81 e0       	ldi	r24, 0x01	; 1
    2c8e:	90 e0       	ldi	r25, 0x00	; 0
    2c90:	a0 e0       	ldi	r26, 0x00	; 0
    2c92:	b0 e0       	ldi	r27, 0x00	; 0
    2c94:	80 93 08 04 	sts	0x0408, r24
    2c98:	90 93 09 04 	sts	0x0409, r25
    2c9c:	a0 93 0a 04 	sts	0x040A, r26
    2ca0:	b0 93 0b 04 	sts	0x040B, r27
    2ca4:	61 e0       	ldi	r22, 0x01	; 1
    2ca6:	70 e0       	ldi	r23, 0x00	; 0
    2ca8:	80 e1       	ldi	r24, 0x10	; 16
    2caa:	94 e0       	ldi	r25, 0x04	; 4
    2cac:	0e 94 03 1e 	call	0x3c06	; 0x3c06 <longjmp>
    2cb0:	8b 8d       	ldd	r24, Y+27	; 0x1b
    2cb2:	9c 8d       	ldd	r25, Y+28	; 0x1c
    2cb4:	81 30       	cpi	r24, 0x01	; 1
    2cb6:	91 05       	cpc	r25, r1
    2cb8:	21 f0       	breq	.+8      	; 0x2cc2 <UnityAssertEqualStringArray+0x14c>
    2cba:	8d 85       	ldd	r24, Y+13	; 0x0d
    2cbc:	9e 85       	ldd	r25, Y+14	; 0x0e
    2cbe:	9a 87       	std	Y+10, r25	; 0x0a
    2cc0:	89 87       	std	Y+9, r24	; 0x09
    2cc2:	8d 81       	ldd	r24, Y+5	; 0x05
    2cc4:	9e 81       	ldd	r25, Y+6	; 0x06
    2cc6:	88 0f       	add	r24, r24
    2cc8:	99 1f       	adc	r25, r25
    2cca:	2f 85       	ldd	r18, Y+15	; 0x0f
    2ccc:	38 89       	ldd	r19, Y+16	; 0x10
    2cce:	82 0f       	add	r24, r18
    2cd0:	93 1f       	adc	r25, r19
    2cd2:	fc 01       	movw	r30, r24
    2cd4:	80 81       	ld	r24, Z
    2cd6:	91 81       	ldd	r25, Z+1	; 0x01
    2cd8:	9c 87       	std	Y+12, r25	; 0x0c
    2cda:	8b 87       	std	Y+11, r24	; 0x0b
    2cdc:	8b 8d       	ldd	r24, Y+27	; 0x1b
    2cde:	9c 8d       	ldd	r25, Y+28	; 0x1c
    2ce0:	81 30       	cpi	r24, 0x01	; 1
    2ce2:	91 05       	cpc	r25, r1
    2ce4:	69 f4       	brne	.+26     	; 0x2d00 <UnityAssertEqualStringArray+0x18a>
    2ce6:	8d 81       	ldd	r24, Y+5	; 0x05
    2ce8:	9e 81       	ldd	r25, Y+6	; 0x06
    2cea:	88 0f       	add	r24, r24
    2cec:	99 1f       	adc	r25, r25
    2cee:	2d 85       	ldd	r18, Y+13	; 0x0d
    2cf0:	3e 85       	ldd	r19, Y+14	; 0x0e
    2cf2:	82 0f       	add	r24, r18
    2cf4:	93 1f       	adc	r25, r19
    2cf6:	fc 01       	movw	r30, r24
    2cf8:	80 81       	ld	r24, Z
    2cfa:	91 81       	ldd	r25, Z+1	; 0x01
    2cfc:	9a 87       	std	Y+10, r25	; 0x0a
    2cfe:	89 87       	std	Y+9, r24	; 0x09
    2d00:	89 85       	ldd	r24, Y+9	; 0x09
    2d02:	9a 85       	ldd	r25, Y+10	; 0x0a
    2d04:	00 97       	sbiw	r24, 0x00	; 0
    2d06:	09 f4       	brne	.+2      	; 0x2d0a <UnityAssertEqualStringArray+0x194>
    2d08:	49 c0       	rjmp	.+146    	; 0x2d9c <UnityAssertEqualStringArray+0x226>
    2d0a:	8b 85       	ldd	r24, Y+11	; 0x0b
    2d0c:	9c 85       	ldd	r25, Y+12	; 0x0c
    2d0e:	00 97       	sbiw	r24, 0x00	; 0
    2d10:	09 f4       	brne	.+2      	; 0x2d14 <UnityAssertEqualStringArray+0x19e>
    2d12:	44 c0       	rjmp	.+136    	; 0x2d9c <UnityAssertEqualStringArray+0x226>
    2d14:	19 82       	std	Y+1, r1	; 0x01
    2d16:	1a 82       	std	Y+2, r1	; 0x02
    2d18:	1b 82       	std	Y+3, r1	; 0x03
    2d1a:	1c 82       	std	Y+4, r1	; 0x04
    2d1c:	2a c0       	rjmp	.+84     	; 0x2d72 <UnityAssertEqualStringArray+0x1fc>
    2d1e:	89 81       	ldd	r24, Y+1	; 0x01
    2d20:	9a 81       	ldd	r25, Y+2	; 0x02
    2d22:	29 85       	ldd	r18, Y+9	; 0x09
    2d24:	3a 85       	ldd	r19, Y+10	; 0x0a
    2d26:	82 0f       	add	r24, r18
    2d28:	93 1f       	adc	r25, r19
    2d2a:	fc 01       	movw	r30, r24
    2d2c:	40 81       	ld	r20, Z
    2d2e:	89 81       	ldd	r24, Y+1	; 0x01
    2d30:	9a 81       	ldd	r25, Y+2	; 0x02
    2d32:	2b 85       	ldd	r18, Y+11	; 0x0b
    2d34:	3c 85       	ldd	r19, Y+12	; 0x0c
    2d36:	82 0f       	add	r24, r18
    2d38:	93 1f       	adc	r25, r19
    2d3a:	fc 01       	movw	r30, r24
    2d3c:	80 81       	ld	r24, Z
    2d3e:	48 17       	cp	r20, r24
    2d40:	69 f0       	breq	.+26     	; 0x2d5c <UnityAssertEqualStringArray+0x1e6>
    2d42:	81 e0       	ldi	r24, 0x01	; 1
    2d44:	90 e0       	ldi	r25, 0x00	; 0
    2d46:	a0 e0       	ldi	r26, 0x00	; 0
    2d48:	b0 e0       	ldi	r27, 0x00	; 0
    2d4a:	80 93 08 04 	sts	0x0408, r24
    2d4e:	90 93 09 04 	sts	0x0409, r25
    2d52:	a0 93 0a 04 	sts	0x040A, r26
    2d56:	b0 93 0b 04 	sts	0x040B, r27
    2d5a:	1f c0       	rjmp	.+62     	; 0x2d9a <UnityAssertEqualStringArray+0x224>
    2d5c:	89 81       	ldd	r24, Y+1	; 0x01
    2d5e:	9a 81       	ldd	r25, Y+2	; 0x02
    2d60:	ab 81       	ldd	r26, Y+3	; 0x03
    2d62:	bc 81       	ldd	r27, Y+4	; 0x04
    2d64:	01 96       	adiw	r24, 0x01	; 1
    2d66:	a1 1d       	adc	r26, r1
    2d68:	b1 1d       	adc	r27, r1
    2d6a:	89 83       	std	Y+1, r24	; 0x01
    2d6c:	9a 83       	std	Y+2, r25	; 0x02
    2d6e:	ab 83       	std	Y+3, r26	; 0x03
    2d70:	bc 83       	std	Y+4, r27	; 0x04
    2d72:	89 81       	ldd	r24, Y+1	; 0x01
    2d74:	9a 81       	ldd	r25, Y+2	; 0x02
    2d76:	29 85       	ldd	r18, Y+9	; 0x09
    2d78:	3a 85       	ldd	r19, Y+10	; 0x0a
    2d7a:	82 0f       	add	r24, r18
    2d7c:	93 1f       	adc	r25, r19
    2d7e:	fc 01       	movw	r30, r24
    2d80:	80 81       	ld	r24, Z
    2d82:	88 23       	and	r24, r24
    2d84:	61 f6       	brne	.-104    	; 0x2d1e <UnityAssertEqualStringArray+0x1a8>
    2d86:	89 81       	ldd	r24, Y+1	; 0x01
    2d88:	9a 81       	ldd	r25, Y+2	; 0x02
    2d8a:	2b 85       	ldd	r18, Y+11	; 0x0b
    2d8c:	3c 85       	ldd	r19, Y+12	; 0x0c
    2d8e:	82 0f       	add	r24, r18
    2d90:	93 1f       	adc	r25, r19
    2d92:	fc 01       	movw	r30, r24
    2d94:	80 81       	ld	r24, Z
    2d96:	88 23       	and	r24, r24
    2d98:	11 f6       	brne	.-124    	; 0x2d1e <UnityAssertEqualStringArray+0x1a8>
    2d9a:	13 c0       	rjmp	.+38     	; 0x2dc2 <UnityAssertEqualStringArray+0x24c>
    2d9c:	29 85       	ldd	r18, Y+9	; 0x09
    2d9e:	3a 85       	ldd	r19, Y+10	; 0x0a
    2da0:	8b 85       	ldd	r24, Y+11	; 0x0b
    2da2:	9c 85       	ldd	r25, Y+12	; 0x0c
    2da4:	28 17       	cp	r18, r24
    2da6:	39 07       	cpc	r19, r25
    2da8:	61 f0       	breq	.+24     	; 0x2dc2 <UnityAssertEqualStringArray+0x24c>
    2daa:	81 e0       	ldi	r24, 0x01	; 1
    2dac:	90 e0       	ldi	r25, 0x00	; 0
    2dae:	a0 e0       	ldi	r26, 0x00	; 0
    2db0:	b0 e0       	ldi	r27, 0x00	; 0
    2db2:	80 93 08 04 	sts	0x0408, r24
    2db6:	90 93 09 04 	sts	0x0409, r25
    2dba:	a0 93 0a 04 	sts	0x040A, r26
    2dbe:	b0 93 0b 04 	sts	0x040B, r27
    2dc2:	80 91 08 04 	lds	r24, 0x0408
    2dc6:	90 91 09 04 	lds	r25, 0x0409
    2dca:	a0 91 0a 04 	lds	r26, 0x040A
    2dce:	b0 91 0b 04 	lds	r27, 0x040B
    2dd2:	00 97       	sbiw	r24, 0x00	; 0
    2dd4:	a1 05       	cpc	r26, r1
    2dd6:	b1 05       	cpc	r27, r1
    2dd8:	d1 f1       	breq	.+116    	; 0x2e4e <UnityAssertEqualStringArray+0x2d8>
    2dda:	8f 89       	ldd	r24, Y+23	; 0x17
    2ddc:	98 8d       	ldd	r25, Y+24	; 0x18
    2dde:	a9 8d       	ldd	r26, Y+25	; 0x19
    2de0:	ba 8d       	ldd	r27, Y+26	; 0x1a
    2de2:	bc 01       	movw	r22, r24
    2de4:	cd 01       	movw	r24, r26
    2de6:	0e 94 44 08 	call	0x1088	; 0x1088 <UnityTestResultsFailBegin>
    2dea:	89 89       	ldd	r24, Y+17	; 0x11
    2dec:	9a 89       	ldd	r25, Y+18	; 0x12
    2dee:	ab 89       	ldd	r26, Y+19	; 0x13
    2df0:	bc 89       	ldd	r27, Y+20	; 0x14
    2df2:	82 30       	cpi	r24, 0x02	; 2
    2df4:	91 05       	cpc	r25, r1
    2df6:	a1 05       	cpc	r26, r1
    2df8:	b1 05       	cpc	r27, r1
    2dfa:	60 f0       	brcs	.+24     	; 0x2e14 <UnityAssertEqualStringArray+0x29e>
    2dfc:	8d e2       	ldi	r24, 0x2D	; 45
    2dfe:	92 e0       	ldi	r25, 0x02	; 2
    2e00:	0e 94 54 01 	call	0x2a8	; 0x2a8 <UnityPrint>
    2e04:	8d 81       	ldd	r24, Y+5	; 0x05
    2e06:	9e 81       	ldd	r25, Y+6	; 0x06
    2e08:	af 81       	ldd	r26, Y+7	; 0x07
    2e0a:	b8 85       	ldd	r27, Y+8	; 0x08
    2e0c:	bc 01       	movw	r22, r24
    2e0e:	cd 01       	movw	r24, r26
    2e10:	0e 94 2f 03 	call	0x65e	; 0x65e <UnityPrintNumberUnsigned>
    2e14:	2b 85       	ldd	r18, Y+11	; 0x0b
    2e16:	3c 85       	ldd	r19, Y+12	; 0x0c
    2e18:	89 85       	ldd	r24, Y+9	; 0x09
    2e1a:	9a 85       	ldd	r25, Y+10	; 0x0a
    2e1c:	b9 01       	movw	r22, r18
    2e1e:	0e 94 21 09 	call	0x1242	; 0x1242 <UnityPrintExpectedAndActualStrings>
    2e22:	8d 89       	ldd	r24, Y+21	; 0x15
    2e24:	9e 89       	ldd	r25, Y+22	; 0x16
    2e26:	0e 94 e4 08 	call	0x11c8	; 0x11c8 <UnityAddMsgIfSpecified>
    2e2a:	81 e0       	ldi	r24, 0x01	; 1
    2e2c:	90 e0       	ldi	r25, 0x00	; 0
    2e2e:	a0 e0       	ldi	r26, 0x00	; 0
    2e30:	b0 e0       	ldi	r27, 0x00	; 0
    2e32:	80 93 08 04 	sts	0x0408, r24
    2e36:	90 93 09 04 	sts	0x0409, r25
    2e3a:	a0 93 0a 04 	sts	0x040A, r26
    2e3e:	b0 93 0b 04 	sts	0x040B, r27
    2e42:	61 e0       	ldi	r22, 0x01	; 1
    2e44:	70 e0       	ldi	r23, 0x00	; 0
    2e46:	80 e1       	ldi	r24, 0x10	; 16
    2e48:	94 e0       	ldi	r25, 0x04	; 4
    2e4a:	0e 94 03 1e 	call	0x3c06	; 0x3c06 <longjmp>
    2e4e:	8d 81       	ldd	r24, Y+5	; 0x05
    2e50:	9e 81       	ldd	r25, Y+6	; 0x06
    2e52:	af 81       	ldd	r26, Y+7	; 0x07
    2e54:	b8 85       	ldd	r27, Y+8	; 0x08
    2e56:	01 96       	adiw	r24, 0x01	; 1
    2e58:	a1 1d       	adc	r26, r1
    2e5a:	b1 1d       	adc	r27, r1
    2e5c:	8d 83       	std	Y+5, r24	; 0x05
    2e5e:	9e 83       	std	Y+6, r25	; 0x06
    2e60:	af 83       	std	Y+7, r26	; 0x07
    2e62:	b8 87       	std	Y+8, r27	; 0x08
    2e64:	2d 81       	ldd	r18, Y+5	; 0x05
    2e66:	3e 81       	ldd	r19, Y+6	; 0x06
    2e68:	4f 81       	ldd	r20, Y+7	; 0x07
    2e6a:	58 85       	ldd	r21, Y+8	; 0x08
    2e6c:	89 89       	ldd	r24, Y+17	; 0x11
    2e6e:	9a 89       	ldd	r25, Y+18	; 0x12
    2e70:	ab 89       	ldd	r26, Y+19	; 0x13
    2e72:	bc 89       	ldd	r27, Y+20	; 0x14
    2e74:	28 17       	cp	r18, r24
    2e76:	39 07       	cpc	r19, r25
    2e78:	4a 07       	cpc	r20, r26
    2e7a:	5b 07       	cpc	r21, r27
    2e7c:	08 f4       	brcc	.+2      	; 0x2e80 <UnityAssertEqualStringArray+0x30a>
    2e7e:	21 cf       	rjmp	.-446    	; 0x2cc2 <UnityAssertEqualStringArray+0x14c>
    2e80:	6c 96       	adiw	r28, 0x1c	; 28
    2e82:	0f b6       	in	r0, 0x3f	; 63
    2e84:	f8 94       	cli
    2e86:	de bf       	out	0x3e, r29	; 62
    2e88:	0f be       	out	0x3f, r0	; 63
    2e8a:	cd bf       	out	0x3d, r28	; 61
    2e8c:	df 91       	pop	r29
    2e8e:	cf 91       	pop	r28
    2e90:	1f 91       	pop	r17
    2e92:	0f 91       	pop	r16
    2e94:	ff 90       	pop	r15
    2e96:	ef 90       	pop	r14
    2e98:	df 90       	pop	r13
    2e9a:	cf 90       	pop	r12
    2e9c:	bf 90       	pop	r11
    2e9e:	af 90       	pop	r10
    2ea0:	08 95       	ret

00002ea2 <UnityAssertEqualMemory>:
    2ea2:	8f 92       	push	r8
    2ea4:	9f 92       	push	r9
    2ea6:	af 92       	push	r10
    2ea8:	bf 92       	push	r11
    2eaa:	cf 92       	push	r12
    2eac:	df 92       	push	r13
    2eae:	ef 92       	push	r14
    2eb0:	ff 92       	push	r15
    2eb2:	0f 93       	push	r16
    2eb4:	1f 93       	push	r17
    2eb6:	cf 93       	push	r28
    2eb8:	df 93       	push	r29
    2eba:	cd b7       	in	r28, 0x3d	; 61
    2ebc:	de b7       	in	r29, 0x3e	; 62
    2ebe:	6e 97       	sbiw	r28, 0x1e	; 30
    2ec0:	0f b6       	in	r0, 0x3f	; 63
    2ec2:	f8 94       	cli
    2ec4:	de bf       	out	0x3e, r29	; 62
    2ec6:	0f be       	out	0x3f, r0	; 63
    2ec8:	cd bf       	out	0x3d, r28	; 61
    2eca:	9e 87       	std	Y+14, r25	; 0x0e
    2ecc:	8d 87       	std	Y+13, r24	; 0x0d
    2ece:	78 8b       	std	Y+16, r23	; 0x10
    2ed0:	6f 87       	std	Y+15, r22	; 0x0f
    2ed2:	29 8b       	std	Y+17, r18	; 0x11
    2ed4:	3a 8b       	std	Y+18, r19	; 0x12
    2ed6:	4b 8b       	std	Y+19, r20	; 0x13
    2ed8:	5c 8b       	std	Y+20, r21	; 0x14
    2eda:	ed 8a       	std	Y+21, r14	; 0x15
    2edc:	fe 8a       	std	Y+22, r15	; 0x16
    2ede:	0f 8b       	std	Y+23, r16	; 0x17
    2ee0:	18 8f       	std	Y+24, r17	; 0x18
    2ee2:	da 8e       	std	Y+26, r13	; 0x1a
    2ee4:	c9 8e       	std	Y+25, r12	; 0x19
    2ee6:	8b 8e       	std	Y+27, r8	; 0x1b
    2ee8:	9c 8e       	std	Y+28, r9	; 0x1c
    2eea:	ad 8e       	std	Y+29, r10	; 0x1d
    2eec:	be 8e       	std	Y+30, r11	; 0x1e
    2eee:	8d 85       	ldd	r24, Y+13	; 0x0d
    2ef0:	9e 85       	ldd	r25, Y+14	; 0x0e
    2ef2:	9a 83       	std	Y+2, r25	; 0x02
    2ef4:	89 83       	std	Y+1, r24	; 0x01
    2ef6:	8f 85       	ldd	r24, Y+15	; 0x0f
    2ef8:	98 89       	ldd	r25, Y+16	; 0x10
    2efa:	9c 83       	std	Y+4, r25	; 0x04
    2efc:	8b 83       	std	Y+3, r24	; 0x03
    2efe:	8d 89       	ldd	r24, Y+21	; 0x15
    2f00:	9e 89       	ldd	r25, Y+22	; 0x16
    2f02:	af 89       	ldd	r26, Y+23	; 0x17
    2f04:	b8 8d       	ldd	r27, Y+24	; 0x18
    2f06:	8d 83       	std	Y+5, r24	; 0x05
    2f08:	9e 83       	std	Y+6, r25	; 0x06
    2f0a:	af 83       	std	Y+7, r26	; 0x07
    2f0c:	b8 87       	std	Y+8, r27	; 0x08
    2f0e:	80 91 08 04 	lds	r24, 0x0408
    2f12:	90 91 09 04 	lds	r25, 0x0409
    2f16:	a0 91 0a 04 	lds	r26, 0x040A
    2f1a:	b0 91 0b 04 	lds	r27, 0x040B
    2f1e:	00 97       	sbiw	r24, 0x00	; 0
    2f20:	a1 05       	cpc	r26, r1
    2f22:	b1 05       	cpc	r27, r1
    2f24:	61 f4       	brne	.+24     	; 0x2f3e <UnityAssertEqualMemory+0x9c>
    2f26:	80 91 0c 04 	lds	r24, 0x040C
    2f2a:	90 91 0d 04 	lds	r25, 0x040D
    2f2e:	a0 91 0e 04 	lds	r26, 0x040E
    2f32:	b0 91 0f 04 	lds	r27, 0x040F
    2f36:	00 97       	sbiw	r24, 0x00	; 0
    2f38:	a1 05       	cpc	r26, r1
    2f3a:	b1 05       	cpc	r27, r1
    2f3c:	09 f0       	breq	.+2      	; 0x2f40 <UnityAssertEqualMemory+0x9e>
    2f3e:	30 c1       	rjmp	.+608    	; 0x31a0 <UnityAssertEqualMemory+0x2fe>
    2f40:	8d 81       	ldd	r24, Y+5	; 0x05
    2f42:	9e 81       	ldd	r25, Y+6	; 0x06
    2f44:	af 81       	ldd	r26, Y+7	; 0x07
    2f46:	b8 85       	ldd	r27, Y+8	; 0x08
    2f48:	00 97       	sbiw	r24, 0x00	; 0
    2f4a:	a1 05       	cpc	r26, r1
    2f4c:	b1 05       	cpc	r27, r1
    2f4e:	41 f0       	breq	.+16     	; 0x2f60 <UnityAssertEqualMemory+0xbe>
    2f50:	89 89       	ldd	r24, Y+17	; 0x11
    2f52:	9a 89       	ldd	r25, Y+18	; 0x12
    2f54:	ab 89       	ldd	r26, Y+19	; 0x13
    2f56:	bc 89       	ldd	r27, Y+20	; 0x14
    2f58:	00 97       	sbiw	r24, 0x00	; 0
    2f5a:	a1 05       	cpc	r26, r1
    2f5c:	b1 05       	cpc	r27, r1
    2f5e:	11 f5       	brne	.+68     	; 0x2fa4 <UnityAssertEqualMemory+0x102>
    2f60:	8b 8d       	ldd	r24, Y+27	; 0x1b
    2f62:	9c 8d       	ldd	r25, Y+28	; 0x1c
    2f64:	ad 8d       	ldd	r26, Y+29	; 0x1d
    2f66:	be 8d       	ldd	r27, Y+30	; 0x1e
    2f68:	bc 01       	movw	r22, r24
    2f6a:	cd 01       	movw	r24, r26
    2f6c:	0e 94 44 08 	call	0x1088	; 0x1088 <UnityTestResultsFailBegin>
    2f70:	8a e6       	ldi	r24, 0x6A	; 106
    2f72:	92 e0       	ldi	r25, 0x02	; 2
    2f74:	0e 94 54 01 	call	0x2a8	; 0x2a8 <UnityPrint>
    2f78:	89 8d       	ldd	r24, Y+25	; 0x19
    2f7a:	9a 8d       	ldd	r25, Y+26	; 0x1a
    2f7c:	0e 94 e4 08 	call	0x11c8	; 0x11c8 <UnityAddMsgIfSpecified>
    2f80:	81 e0       	ldi	r24, 0x01	; 1
    2f82:	90 e0       	ldi	r25, 0x00	; 0
    2f84:	a0 e0       	ldi	r26, 0x00	; 0
    2f86:	b0 e0       	ldi	r27, 0x00	; 0
    2f88:	80 93 08 04 	sts	0x0408, r24
    2f8c:	90 93 09 04 	sts	0x0409, r25
    2f90:	a0 93 0a 04 	sts	0x040A, r26
    2f94:	b0 93 0b 04 	sts	0x040B, r27
    2f98:	61 e0       	ldi	r22, 0x01	; 1
    2f9a:	70 e0       	ldi	r23, 0x00	; 0
    2f9c:	80 e1       	ldi	r24, 0x10	; 16
    2f9e:	94 e0       	ldi	r25, 0x04	; 4
    2fa0:	0e 94 03 1e 	call	0x3c06	; 0x3c06 <longjmp>
    2fa4:	2d 85       	ldd	r18, Y+13	; 0x0d
    2fa6:	3e 85       	ldd	r19, Y+14	; 0x0e
    2fa8:	8f 85       	ldd	r24, Y+15	; 0x0f
    2faa:	98 89       	ldd	r25, Y+16	; 0x10
    2fac:	28 17       	cp	r18, r24
    2fae:	39 07       	cpc	r19, r25
    2fb0:	09 f4       	brne	.+2      	; 0x2fb4 <UnityAssertEqualMemory+0x112>
    2fb2:	f6 c0       	rjmp	.+492    	; 0x31a0 <UnityAssertEqualMemory+0x2fe>
    2fb4:	29 8d       	ldd	r18, Y+25	; 0x19
    2fb6:	3a 8d       	ldd	r19, Y+26	; 0x1a
    2fb8:	8b 8d       	ldd	r24, Y+27	; 0x1b
    2fba:	9c 8d       	ldd	r25, Y+28	; 0x1c
    2fbc:	ad 8d       	ldd	r26, Y+29	; 0x1d
    2fbe:	be 8d       	ldd	r27, Y+30	; 0x1e
    2fc0:	6f 85       	ldd	r22, Y+15	; 0x0f
    2fc2:	78 89       	ldd	r23, Y+16	; 0x10
    2fc4:	ed 85       	ldd	r30, Y+13	; 0x0d
    2fc6:	fe 85       	ldd	r31, Y+14	; 0x0e
    2fc8:	89 01       	movw	r16, r18
    2fca:	9c 01       	movw	r18, r24
    2fcc:	ad 01       	movw	r20, r26
    2fce:	cf 01       	movw	r24, r30
    2fd0:	0e 94 e7 09 	call	0x13ce	; 0x13ce <UnityIsOneArrayNull>
    2fd4:	00 97       	sbiw	r24, 0x00	; 0
    2fd6:	91 f0       	breq	.+36     	; 0x2ffc <UnityAssertEqualMemory+0x15a>
    2fd8:	81 e0       	ldi	r24, 0x01	; 1
    2fda:	90 e0       	ldi	r25, 0x00	; 0
    2fdc:	a0 e0       	ldi	r26, 0x00	; 0
    2fde:	b0 e0       	ldi	r27, 0x00	; 0
    2fe0:	80 93 08 04 	sts	0x0408, r24
    2fe4:	90 93 09 04 	sts	0x0409, r25
    2fe8:	a0 93 0a 04 	sts	0x040A, r26
    2fec:	b0 93 0b 04 	sts	0x040B, r27
    2ff0:	61 e0       	ldi	r22, 0x01	; 1
    2ff2:	70 e0       	ldi	r23, 0x00	; 0
    2ff4:	80 e1       	ldi	r24, 0x10	; 16
    2ff6:	94 e0       	ldi	r25, 0x04	; 4
    2ff8:	0e 94 03 1e 	call	0x3c06	; 0x3c06 <longjmp>
    2ffc:	be c0       	rjmp	.+380    	; 0x317a <UnityAssertEqualMemory+0x2d8>
    2ffe:	89 89       	ldd	r24, Y+17	; 0x11
    3000:	9a 89       	ldd	r25, Y+18	; 0x12
    3002:	ab 89       	ldd	r26, Y+19	; 0x13
    3004:	bc 89       	ldd	r27, Y+20	; 0x14
    3006:	89 87       	std	Y+9, r24	; 0x09
    3008:	9a 87       	std	Y+10, r25	; 0x0a
    300a:	ab 87       	std	Y+11, r26	; 0x0b
    300c:	bc 87       	std	Y+12, r27	; 0x0c
    300e:	9a c0       	rjmp	.+308    	; 0x3144 <UnityAssertEqualMemory+0x2a2>
    3010:	89 81       	ldd	r24, Y+1	; 0x01
    3012:	9a 81       	ldd	r25, Y+2	; 0x02
    3014:	fc 01       	movw	r30, r24
    3016:	20 81       	ld	r18, Z
    3018:	8b 81       	ldd	r24, Y+3	; 0x03
    301a:	9c 81       	ldd	r25, Y+4	; 0x04
    301c:	fc 01       	movw	r30, r24
    301e:	80 81       	ld	r24, Z
    3020:	28 17       	cp	r18, r24
    3022:	09 f4       	brne	.+2      	; 0x3026 <UnityAssertEqualMemory+0x184>
    3024:	85 c0       	rjmp	.+266    	; 0x3130 <UnityAssertEqualMemory+0x28e>
    3026:	8b 8d       	ldd	r24, Y+27	; 0x1b
    3028:	9c 8d       	ldd	r25, Y+28	; 0x1c
    302a:	ad 8d       	ldd	r26, Y+29	; 0x1d
    302c:	be 8d       	ldd	r27, Y+30	; 0x1e
    302e:	bc 01       	movw	r22, r24
    3030:	cd 01       	movw	r24, r26
    3032:	0e 94 44 08 	call	0x1088	; 0x1088 <UnityTestResultsFailBegin>
    3036:	8e e3       	ldi	r24, 0x3E	; 62
    3038:	92 e0       	ldi	r25, 0x02	; 2
    303a:	0e 94 54 01 	call	0x2a8	; 0x2a8 <UnityPrint>
    303e:	8d 89       	ldd	r24, Y+21	; 0x15
    3040:	9e 89       	ldd	r25, Y+22	; 0x16
    3042:	af 89       	ldd	r26, Y+23	; 0x17
    3044:	b8 8d       	ldd	r27, Y+24	; 0x18
    3046:	82 30       	cpi	r24, 0x02	; 2
    3048:	91 05       	cpc	r25, r1
    304a:	a1 05       	cpc	r26, r1
    304c:	b1 05       	cpc	r27, r1
    304e:	d8 f0       	brcs	.+54     	; 0x3086 <UnityAssertEqualMemory+0x1e4>
    3050:	8d e2       	ldi	r24, 0x2D	; 45
    3052:	92 e0       	ldi	r25, 0x02	; 2
    3054:	0e 94 54 01 	call	0x2a8	; 0x2a8 <UnityPrint>
    3058:	2d 89       	ldd	r18, Y+21	; 0x15
    305a:	3e 89       	ldd	r19, Y+22	; 0x16
    305c:	4f 89       	ldd	r20, Y+23	; 0x17
    305e:	58 8d       	ldd	r21, Y+24	; 0x18
    3060:	8d 81       	ldd	r24, Y+5	; 0x05
    3062:	9e 81       	ldd	r25, Y+6	; 0x06
    3064:	af 81       	ldd	r26, Y+7	; 0x07
    3066:	b8 85       	ldd	r27, Y+8	; 0x08
    3068:	79 01       	movw	r14, r18
    306a:	8a 01       	movw	r16, r20
    306c:	e8 1a       	sub	r14, r24
    306e:	f9 0a       	sbc	r15, r25
    3070:	0a 0b       	sbc	r16, r26
    3072:	1b 0b       	sbc	r17, r27
    3074:	d8 01       	movw	r26, r16
    3076:	c7 01       	movw	r24, r14
    3078:	01 97       	sbiw	r24, 0x01	; 1
    307a:	a1 09       	sbc	r26, r1
    307c:	b1 09       	sbc	r27, r1
    307e:	bc 01       	movw	r22, r24
    3080:	cd 01       	movw	r24, r26
    3082:	0e 94 2f 03 	call	0x65e	; 0x65e <UnityPrintNumberUnsigned>
    3086:	87 e3       	ldi	r24, 0x37	; 55
    3088:	92 e0       	ldi	r25, 0x02	; 2
    308a:	0e 94 54 01 	call	0x2a8	; 0x2a8 <UnityPrint>
    308e:	29 89       	ldd	r18, Y+17	; 0x11
    3090:	3a 89       	ldd	r19, Y+18	; 0x12
    3092:	4b 89       	ldd	r20, Y+19	; 0x13
    3094:	5c 89       	ldd	r21, Y+20	; 0x14
    3096:	89 85       	ldd	r24, Y+9	; 0x09
    3098:	9a 85       	ldd	r25, Y+10	; 0x0a
    309a:	ab 85       	ldd	r26, Y+11	; 0x0b
    309c:	bc 85       	ldd	r27, Y+12	; 0x0c
    309e:	79 01       	movw	r14, r18
    30a0:	8a 01       	movw	r16, r20
    30a2:	e8 1a       	sub	r14, r24
    30a4:	f9 0a       	sbc	r15, r25
    30a6:	0a 0b       	sbc	r16, r26
    30a8:	1b 0b       	sbc	r17, r27
    30aa:	d8 01       	movw	r26, r16
    30ac:	c7 01       	movw	r24, r14
    30ae:	01 97       	sbiw	r24, 0x01	; 1
    30b0:	a1 09       	sbc	r26, r1
    30b2:	b1 09       	sbc	r27, r1
    30b4:	bc 01       	movw	r22, r24
    30b6:	cd 01       	movw	r24, r26
    30b8:	0e 94 2f 03 	call	0x65e	; 0x65e <UnityPrintNumberUnsigned>
    30bc:	8c e1       	ldi	r24, 0x1C	; 28
    30be:	92 e0       	ldi	r25, 0x02	; 2
    30c0:	0e 94 54 01 	call	0x2a8	; 0x2a8 <UnityPrint>
    30c4:	89 81       	ldd	r24, Y+1	; 0x01
    30c6:	9a 81       	ldd	r25, Y+2	; 0x02
    30c8:	fc 01       	movw	r30, r24
    30ca:	80 81       	ld	r24, Z
    30cc:	88 2f       	mov	r24, r24
    30ce:	90 e0       	ldi	r25, 0x00	; 0
    30d0:	a0 e0       	ldi	r26, 0x00	; 0
    30d2:	b0 e0       	ldi	r27, 0x00	; 0
    30d4:	41 e4       	ldi	r20, 0x41	; 65
    30d6:	50 e0       	ldi	r21, 0x00	; 0
    30d8:	bc 01       	movw	r22, r24
    30da:	cd 01       	movw	r24, r26
    30dc:	0e 94 98 02 	call	0x530	; 0x530 <UnityPrintNumberByStyle>
    30e0:	87 e2       	ldi	r24, 0x27	; 39
    30e2:	92 e0       	ldi	r25, 0x02	; 2
    30e4:	0e 94 54 01 	call	0x2a8	; 0x2a8 <UnityPrint>
    30e8:	8b 81       	ldd	r24, Y+3	; 0x03
    30ea:	9c 81       	ldd	r25, Y+4	; 0x04
    30ec:	fc 01       	movw	r30, r24
    30ee:	80 81       	ld	r24, Z
    30f0:	88 2f       	mov	r24, r24
    30f2:	90 e0       	ldi	r25, 0x00	; 0
    30f4:	a0 e0       	ldi	r26, 0x00	; 0
    30f6:	b0 e0       	ldi	r27, 0x00	; 0
    30f8:	41 e4       	ldi	r20, 0x41	; 65
    30fa:	50 e0       	ldi	r21, 0x00	; 0
    30fc:	bc 01       	movw	r22, r24
    30fe:	cd 01       	movw	r24, r26
    3100:	0e 94 98 02 	call	0x530	; 0x530 <UnityPrintNumberByStyle>
    3104:	89 8d       	ldd	r24, Y+25	; 0x19
    3106:	9a 8d       	ldd	r25, Y+26	; 0x1a
    3108:	0e 94 e4 08 	call	0x11c8	; 0x11c8 <UnityAddMsgIfSpecified>
    310c:	81 e0       	ldi	r24, 0x01	; 1
    310e:	90 e0       	ldi	r25, 0x00	; 0
    3110:	a0 e0       	ldi	r26, 0x00	; 0
    3112:	b0 e0       	ldi	r27, 0x00	; 0
    3114:	80 93 08 04 	sts	0x0408, r24
    3118:	90 93 09 04 	sts	0x0409, r25
    311c:	a0 93 0a 04 	sts	0x040A, r26
    3120:	b0 93 0b 04 	sts	0x040B, r27
    3124:	61 e0       	ldi	r22, 0x01	; 1
    3126:	70 e0       	ldi	r23, 0x00	; 0
    3128:	80 e1       	ldi	r24, 0x10	; 16
    312a:	94 e0       	ldi	r25, 0x04	; 4
    312c:	0e 94 03 1e 	call	0x3c06	; 0x3c06 <longjmp>
    3130:	89 81       	ldd	r24, Y+1	; 0x01
    3132:	9a 81       	ldd	r25, Y+2	; 0x02
    3134:	01 96       	adiw	r24, 0x01	; 1
    3136:	9a 83       	std	Y+2, r25	; 0x02
    3138:	89 83       	std	Y+1, r24	; 0x01
    313a:	8b 81       	ldd	r24, Y+3	; 0x03
    313c:	9c 81       	ldd	r25, Y+4	; 0x04
    313e:	01 96       	adiw	r24, 0x01	; 1
    3140:	9c 83       	std	Y+4, r25	; 0x04
    3142:	8b 83       	std	Y+3, r24	; 0x03
    3144:	89 85       	ldd	r24, Y+9	; 0x09
    3146:	9a 85       	ldd	r25, Y+10	; 0x0a
    3148:	ab 85       	ldd	r26, Y+11	; 0x0b
    314a:	bc 85       	ldd	r27, Y+12	; 0x0c
    314c:	9c 01       	movw	r18, r24
    314e:	ad 01       	movw	r20, r26
    3150:	21 50       	subi	r18, 0x01	; 1
    3152:	31 09       	sbc	r19, r1
    3154:	41 09       	sbc	r20, r1
    3156:	51 09       	sbc	r21, r1
    3158:	29 87       	std	Y+9, r18	; 0x09
    315a:	3a 87       	std	Y+10, r19	; 0x0a
    315c:	4b 87       	std	Y+11, r20	; 0x0b
    315e:	5c 87       	std	Y+12, r21	; 0x0c
    3160:	00 97       	sbiw	r24, 0x00	; 0
    3162:	a1 05       	cpc	r26, r1
    3164:	b1 05       	cpc	r27, r1
    3166:	09 f0       	breq	.+2      	; 0x316a <UnityAssertEqualMemory+0x2c8>
    3168:	53 cf       	rjmp	.-346    	; 0x3010 <UnityAssertEqualMemory+0x16e>
    316a:	8e a5       	ldd	r24, Y+46	; 0x2e
    316c:	9f a5       	ldd	r25, Y+47	; 0x2f
    316e:	00 97       	sbiw	r24, 0x00	; 0
    3170:	21 f4       	brne	.+8      	; 0x317a <UnityAssertEqualMemory+0x2d8>
    3172:	8d 85       	ldd	r24, Y+13	; 0x0d
    3174:	9e 85       	ldd	r25, Y+14	; 0x0e
    3176:	9a 83       	std	Y+2, r25	; 0x02
    3178:	89 83       	std	Y+1, r24	; 0x01
    317a:	8d 81       	ldd	r24, Y+5	; 0x05
    317c:	9e 81       	ldd	r25, Y+6	; 0x06
    317e:	af 81       	ldd	r26, Y+7	; 0x07
    3180:	b8 85       	ldd	r27, Y+8	; 0x08
    3182:	9c 01       	movw	r18, r24
    3184:	ad 01       	movw	r20, r26
    3186:	21 50       	subi	r18, 0x01	; 1
    3188:	31 09       	sbc	r19, r1
    318a:	41 09       	sbc	r20, r1
    318c:	51 09       	sbc	r21, r1
    318e:	2d 83       	std	Y+5, r18	; 0x05
    3190:	3e 83       	std	Y+6, r19	; 0x06
    3192:	4f 83       	std	Y+7, r20	; 0x07
    3194:	58 87       	std	Y+8, r21	; 0x08
    3196:	00 97       	sbiw	r24, 0x00	; 0
    3198:	a1 05       	cpc	r26, r1
    319a:	b1 05       	cpc	r27, r1
    319c:	09 f0       	breq	.+2      	; 0x31a0 <UnityAssertEqualMemory+0x2fe>
    319e:	2f cf       	rjmp	.-418    	; 0x2ffe <UnityAssertEqualMemory+0x15c>
    31a0:	6e 96       	adiw	r28, 0x1e	; 30
    31a2:	0f b6       	in	r0, 0x3f	; 63
    31a4:	f8 94       	cli
    31a6:	de bf       	out	0x3e, r29	; 62
    31a8:	0f be       	out	0x3f, r0	; 63
    31aa:	cd bf       	out	0x3d, r28	; 61
    31ac:	df 91       	pop	r29
    31ae:	cf 91       	pop	r28
    31b0:	1f 91       	pop	r17
    31b2:	0f 91       	pop	r16
    31b4:	ff 90       	pop	r15
    31b6:	ef 90       	pop	r14
    31b8:	df 90       	pop	r13
    31ba:	cf 90       	pop	r12
    31bc:	bf 90       	pop	r11
    31be:	af 90       	pop	r10
    31c0:	9f 90       	pop	r9
    31c2:	8f 90       	pop	r8
    31c4:	08 95       	ret

000031c6 <UnityNumToPtr>:
    31c6:	cf 93       	push	r28
    31c8:	df 93       	push	r29
    31ca:	00 d0       	rcall	.+0      	; 0x31cc <UnityNumToPtr+0x6>
    31cc:	1f 92       	push	r1
    31ce:	1f 92       	push	r1
    31d0:	cd b7       	in	r28, 0x3d	; 61
    31d2:	de b7       	in	r29, 0x3e	; 62
    31d4:	69 83       	std	Y+1, r22	; 0x01
    31d6:	7a 83       	std	Y+2, r23	; 0x02
    31d8:	8b 83       	std	Y+3, r24	; 0x03
    31da:	9c 83       	std	Y+4, r25	; 0x04
    31dc:	4d 83       	std	Y+5, r20	; 0x05
    31de:	8d 81       	ldd	r24, Y+5	; 0x05
    31e0:	88 2f       	mov	r24, r24
    31e2:	90 e0       	ldi	r25, 0x00	; 0
    31e4:	81 30       	cpi	r24, 0x01	; 1
    31e6:	91 05       	cpc	r25, r1
    31e8:	21 f0       	breq	.+8      	; 0x31f2 <UnityNumToPtr+0x2c>
    31ea:	82 30       	cpi	r24, 0x02	; 2
    31ec:	91 05       	cpc	r25, r1
    31ee:	39 f0       	breq	.+14     	; 0x31fe <UnityNumToPtr+0x38>
    31f0:	0f c0       	rjmp	.+30     	; 0x3210 <UnityNumToPtr+0x4a>
    31f2:	89 81       	ldd	r24, Y+1	; 0x01
    31f4:	80 93 ea 03 	sts	0x03EA, r24
    31f8:	8a ee       	ldi	r24, 0xEA	; 234
    31fa:	93 e0       	ldi	r25, 0x03	; 3
    31fc:	17 c0       	rjmp	.+46     	; 0x322c <UnityNumToPtr+0x66>
    31fe:	89 81       	ldd	r24, Y+1	; 0x01
    3200:	9a 81       	ldd	r25, Y+2	; 0x02
    3202:	90 93 eb 03 	sts	0x03EB, r25
    3206:	80 93 ea 03 	sts	0x03EA, r24
    320a:	8a ee       	ldi	r24, 0xEA	; 234
    320c:	93 e0       	ldi	r25, 0x03	; 3
    320e:	0e c0       	rjmp	.+28     	; 0x322c <UnityNumToPtr+0x66>
    3210:	89 81       	ldd	r24, Y+1	; 0x01
    3212:	9a 81       	ldd	r25, Y+2	; 0x02
    3214:	ab 81       	ldd	r26, Y+3	; 0x03
    3216:	bc 81       	ldd	r27, Y+4	; 0x04
    3218:	80 93 ea 03 	sts	0x03EA, r24
    321c:	90 93 eb 03 	sts	0x03EB, r25
    3220:	a0 93 ec 03 	sts	0x03EC, r26
    3224:	b0 93 ed 03 	sts	0x03ED, r27
    3228:	8a ee       	ldi	r24, 0xEA	; 234
    322a:	93 e0       	ldi	r25, 0x03	; 3
    322c:	0f 90       	pop	r0
    322e:	0f 90       	pop	r0
    3230:	0f 90       	pop	r0
    3232:	0f 90       	pop	r0
    3234:	0f 90       	pop	r0
    3236:	df 91       	pop	r29
    3238:	cf 91       	pop	r28
    323a:	08 95       	ret

0000323c <UnityFloatToPtr>:
    323c:	cf 93       	push	r28
    323e:	df 93       	push	r29
    3240:	00 d0       	rcall	.+0      	; 0x3242 <UnityFloatToPtr+0x6>
    3242:	1f 92       	push	r1
    3244:	cd b7       	in	r28, 0x3d	; 61
    3246:	de b7       	in	r29, 0x3e	; 62
    3248:	69 83       	std	Y+1, r22	; 0x01
    324a:	7a 83       	std	Y+2, r23	; 0x02
    324c:	8b 83       	std	Y+3, r24	; 0x03
    324e:	9c 83       	std	Y+4, r25	; 0x04
    3250:	89 81       	ldd	r24, Y+1	; 0x01
    3252:	9a 81       	ldd	r25, Y+2	; 0x02
    3254:	ab 81       	ldd	r26, Y+3	; 0x03
    3256:	bc 81       	ldd	r27, Y+4	; 0x04
    3258:	80 93 ea 03 	sts	0x03EA, r24
    325c:	90 93 eb 03 	sts	0x03EB, r25
    3260:	a0 93 ec 03 	sts	0x03EC, r26
    3264:	b0 93 ed 03 	sts	0x03ED, r27
    3268:	8a ee       	ldi	r24, 0xEA	; 234
    326a:	93 e0       	ldi	r25, 0x03	; 3
    326c:	0f 90       	pop	r0
    326e:	0f 90       	pop	r0
    3270:	0f 90       	pop	r0
    3272:	0f 90       	pop	r0
    3274:	df 91       	pop	r29
    3276:	cf 91       	pop	r28
    3278:	08 95       	ret

0000327a <UnityFail>:
    327a:	cf 93       	push	r28
    327c:	df 93       	push	r29
    327e:	00 d0       	rcall	.+0      	; 0x3280 <UnityFail+0x6>
    3280:	00 d0       	rcall	.+0      	; 0x3282 <UnityFail+0x8>
    3282:	cd b7       	in	r28, 0x3d	; 61
    3284:	de b7       	in	r29, 0x3e	; 62
    3286:	9a 83       	std	Y+2, r25	; 0x02
    3288:	89 83       	std	Y+1, r24	; 0x01
    328a:	4b 83       	std	Y+3, r20	; 0x03
    328c:	5c 83       	std	Y+4, r21	; 0x04
    328e:	6d 83       	std	Y+5, r22	; 0x05
    3290:	7e 83       	std	Y+6, r23	; 0x06
    3292:	80 91 08 04 	lds	r24, 0x0408
    3296:	90 91 09 04 	lds	r25, 0x0409
    329a:	a0 91 0a 04 	lds	r26, 0x040A
    329e:	b0 91 0b 04 	lds	r27, 0x040B
    32a2:	00 97       	sbiw	r24, 0x00	; 0
    32a4:	a1 05       	cpc	r26, r1
    32a6:	b1 05       	cpc	r27, r1
    32a8:	61 f4       	brne	.+24     	; 0x32c2 <UnityFail+0x48>
    32aa:	80 91 0c 04 	lds	r24, 0x040C
    32ae:	90 91 0d 04 	lds	r25, 0x040D
    32b2:	a0 91 0e 04 	lds	r26, 0x040E
    32b6:	b0 91 0f 04 	lds	r27, 0x040F
    32ba:	00 97       	sbiw	r24, 0x00	; 0
    32bc:	a1 05       	cpc	r26, r1
    32be:	b1 05       	cpc	r27, r1
    32c0:	09 f0       	breq	.+2      	; 0x32c4 <UnityFail+0x4a>
    32c2:	68 c0       	rjmp	.+208    	; 0x3394 <UnityFail+0x11a>
    32c4:	20 91 f0 03 	lds	r18, 0x03F0
    32c8:	30 91 f1 03 	lds	r19, 0x03F1
    32cc:	8b 81       	ldd	r24, Y+3	; 0x03
    32ce:	9c 81       	ldd	r25, Y+4	; 0x04
    32d0:	ad 81       	ldd	r26, Y+5	; 0x05
    32d2:	be 81       	ldd	r27, Y+6	; 0x06
    32d4:	ac 01       	movw	r20, r24
    32d6:	bd 01       	movw	r22, r26
    32d8:	c9 01       	movw	r24, r18
    32da:	0e 94 02 08 	call	0x1004	; 0x1004 <UnityTestResultsBegin>
    32de:	88 e0       	ldi	r24, 0x08	; 8
    32e0:	92 e0       	ldi	r25, 0x02	; 2
    32e2:	0e 94 54 01 	call	0x2a8	; 0x2a8 <UnityPrint>
    32e6:	89 81       	ldd	r24, Y+1	; 0x01
    32e8:	9a 81       	ldd	r25, Y+2	; 0x02
    32ea:	00 97       	sbiw	r24, 0x00	; 0
    32ec:	09 f4       	brne	.+2      	; 0x32f0 <UnityFail+0x76>
    32ee:	40 c0       	rjmp	.+128    	; 0x3370 <UnityFail+0xf6>
    32f0:	80 91 2a 04 	lds	r24, 0x042A
    32f4:	90 91 2b 04 	lds	r25, 0x042B
    32f8:	bc 01       	movw	r22, r24
    32fa:	8a e3       	ldi	r24, 0x3A	; 58
    32fc:	90 e0       	ldi	r25, 0x00	; 0
    32fe:	0e 94 28 1e 	call	0x3c50	; 0x3c50 <fputc>
    3302:	80 91 f4 03 	lds	r24, 0x03F4
    3306:	90 91 f5 03 	lds	r25, 0x03F5
    330a:	00 97       	sbiw	r24, 0x00	; 0
    330c:	f1 f0       	breq	.+60     	; 0x334a <UnityFail+0xd0>
    330e:	8c ea       	ldi	r24, 0xAC	; 172
    3310:	93 e0       	ldi	r25, 0x03	; 3
    3312:	0e 94 54 01 	call	0x2a8	; 0x2a8 <UnityPrint>
    3316:	80 91 f4 03 	lds	r24, 0x03F4
    331a:	90 91 f5 03 	lds	r25, 0x03F5
    331e:	0e 94 54 01 	call	0x2a8	; 0x2a8 <UnityPrint>
    3322:	80 91 f6 03 	lds	r24, 0x03F6
    3326:	90 91 f7 03 	lds	r25, 0x03F7
    332a:	00 97       	sbiw	r24, 0x00	; 0
    332c:	51 f0       	breq	.+20     	; 0x3342 <UnityFail+0xc8>
    332e:	86 eb       	ldi	r24, 0xB6	; 182
    3330:	93 e0       	ldi	r25, 0x03	; 3
    3332:	0e 94 54 01 	call	0x2a8	; 0x2a8 <UnityPrint>
    3336:	80 91 f6 03 	lds	r24, 0x03F6
    333a:	90 91 f7 03 	lds	r25, 0x03F7
    333e:	0e 94 54 01 	call	0x2a8	; 0x2a8 <UnityPrint>
    3342:	89 e1       	ldi	r24, 0x19	; 25
    3344:	92 e0       	ldi	r25, 0x02	; 2
    3346:	0e 94 54 01 	call	0x2a8	; 0x2a8 <UnityPrint>
    334a:	89 81       	ldd	r24, Y+1	; 0x01
    334c:	9a 81       	ldd	r25, Y+2	; 0x02
    334e:	fc 01       	movw	r30, r24
    3350:	80 81       	ld	r24, Z
    3352:	80 32       	cpi	r24, 0x20	; 32
    3354:	49 f0       	breq	.+18     	; 0x3368 <UnityFail+0xee>
    3356:	80 91 2a 04 	lds	r24, 0x042A
    335a:	90 91 2b 04 	lds	r25, 0x042B
    335e:	bc 01       	movw	r22, r24
    3360:	80 e2       	ldi	r24, 0x20	; 32
    3362:	90 e0       	ldi	r25, 0x00	; 0
    3364:	0e 94 28 1e 	call	0x3c50	; 0x3c50 <fputc>
    3368:	89 81       	ldd	r24, Y+1	; 0x01
    336a:	9a 81       	ldd	r25, Y+2	; 0x02
    336c:	0e 94 54 01 	call	0x2a8	; 0x2a8 <UnityPrint>
    3370:	81 e0       	ldi	r24, 0x01	; 1
    3372:	90 e0       	ldi	r25, 0x00	; 0
    3374:	a0 e0       	ldi	r26, 0x00	; 0
    3376:	b0 e0       	ldi	r27, 0x00	; 0
    3378:	80 93 08 04 	sts	0x0408, r24
    337c:	90 93 09 04 	sts	0x0409, r25
    3380:	a0 93 0a 04 	sts	0x040A, r26
    3384:	b0 93 0b 04 	sts	0x040B, r27
    3388:	61 e0       	ldi	r22, 0x01	; 1
    338a:	70 e0       	ldi	r23, 0x00	; 0
    338c:	80 e1       	ldi	r24, 0x10	; 16
    338e:	94 e0       	ldi	r25, 0x04	; 4
    3390:	0e 94 03 1e 	call	0x3c06	; 0x3c06 <longjmp>
    3394:	26 96       	adiw	r28, 0x06	; 6
    3396:	0f b6       	in	r0, 0x3f	; 63
    3398:	f8 94       	cli
    339a:	de bf       	out	0x3e, r29	; 62
    339c:	0f be       	out	0x3f, r0	; 63
    339e:	cd bf       	out	0x3d, r28	; 61
    33a0:	df 91       	pop	r29
    33a2:	cf 91       	pop	r28
    33a4:	08 95       	ret

000033a6 <UnityIgnore>:
    33a6:	cf 93       	push	r28
    33a8:	df 93       	push	r29
    33aa:	00 d0       	rcall	.+0      	; 0x33ac <UnityIgnore+0x6>
    33ac:	00 d0       	rcall	.+0      	; 0x33ae <UnityIgnore+0x8>
    33ae:	cd b7       	in	r28, 0x3d	; 61
    33b0:	de b7       	in	r29, 0x3e	; 62
    33b2:	9a 83       	std	Y+2, r25	; 0x02
    33b4:	89 83       	std	Y+1, r24	; 0x01
    33b6:	4b 83       	std	Y+3, r20	; 0x03
    33b8:	5c 83       	std	Y+4, r21	; 0x04
    33ba:	6d 83       	std	Y+5, r22	; 0x05
    33bc:	7e 83       	std	Y+6, r23	; 0x06
    33be:	80 91 08 04 	lds	r24, 0x0408
    33c2:	90 91 09 04 	lds	r25, 0x0409
    33c6:	a0 91 0a 04 	lds	r26, 0x040A
    33ca:	b0 91 0b 04 	lds	r27, 0x040B
    33ce:	00 97       	sbiw	r24, 0x00	; 0
    33d0:	a1 05       	cpc	r26, r1
    33d2:	b1 05       	cpc	r27, r1
    33d4:	61 f4       	brne	.+24     	; 0x33ee <UnityIgnore+0x48>
    33d6:	80 91 0c 04 	lds	r24, 0x040C
    33da:	90 91 0d 04 	lds	r25, 0x040D
    33de:	a0 91 0e 04 	lds	r26, 0x040E
    33e2:	b0 91 0f 04 	lds	r27, 0x040F
    33e6:	00 97       	sbiw	r24, 0x00	; 0
    33e8:	a1 05       	cpc	r26, r1
    33ea:	b1 05       	cpc	r27, r1
    33ec:	09 f0       	breq	.+2      	; 0x33f0 <UnityIgnore+0x4a>
    33ee:	3d c0       	rjmp	.+122    	; 0x346a <UnityIgnore+0xc4>
    33f0:	20 91 f0 03 	lds	r18, 0x03F0
    33f4:	30 91 f1 03 	lds	r19, 0x03F1
    33f8:	8b 81       	ldd	r24, Y+3	; 0x03
    33fa:	9c 81       	ldd	r25, Y+4	; 0x04
    33fc:	ad 81       	ldd	r26, Y+5	; 0x05
    33fe:	be 81       	ldd	r27, Y+6	; 0x06
    3400:	ac 01       	movw	r20, r24
    3402:	bd 01       	movw	r22, r26
    3404:	c9 01       	movw	r24, r18
    3406:	0e 94 02 08 	call	0x1004	; 0x1004 <UnityTestResultsBegin>
    340a:	8d e0       	ldi	r24, 0x0D	; 13
    340c:	92 e0       	ldi	r25, 0x02	; 2
    340e:	0e 94 54 01 	call	0x2a8	; 0x2a8 <UnityPrint>
    3412:	89 81       	ldd	r24, Y+1	; 0x01
    3414:	9a 81       	ldd	r25, Y+2	; 0x02
    3416:	00 97       	sbiw	r24, 0x00	; 0
    3418:	b1 f0       	breq	.+44     	; 0x3446 <UnityIgnore+0xa0>
    341a:	80 91 2a 04 	lds	r24, 0x042A
    341e:	90 91 2b 04 	lds	r25, 0x042B
    3422:	bc 01       	movw	r22, r24
    3424:	8a e3       	ldi	r24, 0x3A	; 58
    3426:	90 e0       	ldi	r25, 0x00	; 0
    3428:	0e 94 28 1e 	call	0x3c50	; 0x3c50 <fputc>
    342c:	80 91 2a 04 	lds	r24, 0x042A
    3430:	90 91 2b 04 	lds	r25, 0x042B
    3434:	bc 01       	movw	r22, r24
    3436:	80 e2       	ldi	r24, 0x20	; 32
    3438:	90 e0       	ldi	r25, 0x00	; 0
    343a:	0e 94 28 1e 	call	0x3c50	; 0x3c50 <fputc>
    343e:	89 81       	ldd	r24, Y+1	; 0x01
    3440:	9a 81       	ldd	r25, Y+2	; 0x02
    3442:	0e 94 54 01 	call	0x2a8	; 0x2a8 <UnityPrint>
    3446:	81 e0       	ldi	r24, 0x01	; 1
    3448:	90 e0       	ldi	r25, 0x00	; 0
    344a:	a0 e0       	ldi	r26, 0x00	; 0
    344c:	b0 e0       	ldi	r27, 0x00	; 0
    344e:	80 93 0c 04 	sts	0x040C, r24
    3452:	90 93 0d 04 	sts	0x040D, r25
    3456:	a0 93 0e 04 	sts	0x040E, r26
    345a:	b0 93 0f 04 	sts	0x040F, r27
    345e:	61 e0       	ldi	r22, 0x01	; 1
    3460:	70 e0       	ldi	r23, 0x00	; 0
    3462:	80 e1       	ldi	r24, 0x10	; 16
    3464:	94 e0       	ldi	r25, 0x04	; 4
    3466:	0e 94 03 1e 	call	0x3c06	; 0x3c06 <longjmp>
    346a:	26 96       	adiw	r28, 0x06	; 6
    346c:	0f b6       	in	r0, 0x3f	; 63
    346e:	f8 94       	cli
    3470:	de bf       	out	0x3e, r29	; 62
    3472:	0f be       	out	0x3f, r0	; 63
    3474:	cd bf       	out	0x3d, r28	; 61
    3476:	df 91       	pop	r29
    3478:	cf 91       	pop	r28
    347a:	08 95       	ret

0000347c <setUp>:
    347c:	cf 93       	push	r28
    347e:	df 93       	push	r29
    3480:	cd b7       	in	r28, 0x3d	; 61
    3482:	de b7       	in	r29, 0x3e	; 62
    3484:	df 91       	pop	r29
    3486:	cf 91       	pop	r28
    3488:	08 95       	ret

0000348a <tearDown>:
    348a:	cf 93       	push	r28
    348c:	df 93       	push	r29
    348e:	cd b7       	in	r28, 0x3d	; 61
    3490:	de b7       	in	r29, 0x3e	; 62
    3492:	df 91       	pop	r29
    3494:	cf 91       	pop	r28
    3496:	08 95       	ret

00003498 <UnityDefaultTestRun>:
    3498:	cf 93       	push	r28
    349a:	df 93       	push	r29
    349c:	00 d0       	rcall	.+0      	; 0x349e <UnityDefaultTestRun+0x6>
    349e:	00 d0       	rcall	.+0      	; 0x34a0 <UnityDefaultTestRun+0x8>
    34a0:	cd b7       	in	r28, 0x3d	; 61
    34a2:	de b7       	in	r29, 0x3e	; 62
    34a4:	9a 83       	std	Y+2, r25	; 0x02
    34a6:	89 83       	std	Y+1, r24	; 0x01
    34a8:	7c 83       	std	Y+4, r23	; 0x04
    34aa:	6b 83       	std	Y+3, r22	; 0x03
    34ac:	5e 83       	std	Y+6, r21	; 0x06
    34ae:	4d 83       	std	Y+5, r20	; 0x05
    34b0:	8b 81       	ldd	r24, Y+3	; 0x03
    34b2:	9c 81       	ldd	r25, Y+4	; 0x04
    34b4:	90 93 f3 03 	sts	0x03F3, r25
    34b8:	80 93 f2 03 	sts	0x03F2, r24
    34bc:	8d 81       	ldd	r24, Y+5	; 0x05
    34be:	9e 81       	ldd	r25, Y+6	; 0x06
    34c0:	aa 27       	eor	r26, r26
    34c2:	97 fd       	sbrc	r25, 7
    34c4:	a0 95       	com	r26
    34c6:	ba 2f       	mov	r27, r26
    34c8:	80 93 f8 03 	sts	0x03F8, r24
    34cc:	90 93 f9 03 	sts	0x03F9, r25
    34d0:	a0 93 fa 03 	sts	0x03FA, r26
    34d4:	b0 93 fb 03 	sts	0x03FB, r27
    34d8:	80 91 fc 03 	lds	r24, 0x03FC
    34dc:	90 91 fd 03 	lds	r25, 0x03FD
    34e0:	a0 91 fe 03 	lds	r26, 0x03FE
    34e4:	b0 91 ff 03 	lds	r27, 0x03FF
    34e8:	01 96       	adiw	r24, 0x01	; 1
    34ea:	a1 1d       	adc	r26, r1
    34ec:	b1 1d       	adc	r27, r1
    34ee:	80 93 fc 03 	sts	0x03FC, r24
    34f2:	90 93 fd 03 	sts	0x03FD, r25
    34f6:	a0 93 fe 03 	sts	0x03FE, r26
    34fa:	b0 93 ff 03 	sts	0x03FF, r27
    34fe:	10 92 f5 03 	sts	0x03F5, r1
    3502:	10 92 f4 03 	sts	0x03F4, r1
    3506:	10 92 f7 03 	sts	0x03F7, r1
    350a:	10 92 f6 03 	sts	0x03F6, r1
    350e:	80 e1       	ldi	r24, 0x10	; 16
    3510:	94 e0       	ldi	r25, 0x04	; 4
    3512:	0e 94 e1 1d 	call	0x3bc2	; 0x3bc2 <setjmp>
    3516:	00 97       	sbiw	r24, 0x00	; 0
    3518:	31 f4       	brne	.+12     	; 0x3526 <UnityDefaultTestRun+0x8e>
    351a:	0e 94 3e 1a 	call	0x347c	; 0x347c <setUp>
    351e:	89 81       	ldd	r24, Y+1	; 0x01
    3520:	9a 81       	ldd	r25, Y+2	; 0x02
    3522:	fc 01       	movw	r30, r24
    3524:	19 95       	eicall
    3526:	80 e1       	ldi	r24, 0x10	; 16
    3528:	94 e0       	ldi	r25, 0x04	; 4
    352a:	0e 94 e1 1d 	call	0x3bc2	; 0x3bc2 <setjmp>
    352e:	00 97       	sbiw	r24, 0x00	; 0
    3530:	11 f4       	brne	.+4      	; 0x3536 <UnityDefaultTestRun+0x9e>
    3532:	0e 94 45 1a 	call	0x348a	; 0x348a <tearDown>
    3536:	0e 94 6f 08 	call	0x10de	; 0x10de <UnityConcludeTest>
    353a:	26 96       	adiw	r28, 0x06	; 6
    353c:	0f b6       	in	r0, 0x3f	; 63
    353e:	f8 94       	cli
    3540:	de bf       	out	0x3e, r29	; 62
    3542:	0f be       	out	0x3f, r0	; 63
    3544:	cd bf       	out	0x3d, r28	; 61
    3546:	df 91       	pop	r29
    3548:	cf 91       	pop	r28
    354a:	08 95       	ret

0000354c <UnityBegin>:
    354c:	cf 93       	push	r28
    354e:	df 93       	push	r29
    3550:	1f 92       	push	r1
    3552:	1f 92       	push	r1
    3554:	cd b7       	in	r28, 0x3d	; 61
    3556:	de b7       	in	r29, 0x3e	; 62
    3558:	9a 83       	std	Y+2, r25	; 0x02
    355a:	89 83       	std	Y+1, r24	; 0x01
    355c:	89 81       	ldd	r24, Y+1	; 0x01
    355e:	9a 81       	ldd	r25, Y+2	; 0x02
    3560:	90 93 f1 03 	sts	0x03F1, r25
    3564:	80 93 f0 03 	sts	0x03F0, r24
    3568:	10 92 f3 03 	sts	0x03F3, r1
    356c:	10 92 f2 03 	sts	0x03F2, r1
    3570:	10 92 f8 03 	sts	0x03F8, r1
    3574:	10 92 f9 03 	sts	0x03F9, r1
    3578:	10 92 fa 03 	sts	0x03FA, r1
    357c:	10 92 fb 03 	sts	0x03FB, r1
    3580:	10 92 fc 03 	sts	0x03FC, r1
    3584:	10 92 fd 03 	sts	0x03FD, r1
    3588:	10 92 fe 03 	sts	0x03FE, r1
    358c:	10 92 ff 03 	sts	0x03FF, r1
    3590:	10 92 00 04 	sts	0x0400, r1
    3594:	10 92 01 04 	sts	0x0401, r1
    3598:	10 92 02 04 	sts	0x0402, r1
    359c:	10 92 03 04 	sts	0x0403, r1
    35a0:	10 92 04 04 	sts	0x0404, r1
    35a4:	10 92 05 04 	sts	0x0405, r1
    35a8:	10 92 06 04 	sts	0x0406, r1
    35ac:	10 92 07 04 	sts	0x0407, r1
    35b0:	10 92 08 04 	sts	0x0408, r1
    35b4:	10 92 09 04 	sts	0x0409, r1
    35b8:	10 92 0a 04 	sts	0x040A, r1
    35bc:	10 92 0b 04 	sts	0x040B, r1
    35c0:	10 92 0c 04 	sts	0x040C, r1
    35c4:	10 92 0d 04 	sts	0x040D, r1
    35c8:	10 92 0e 04 	sts	0x040E, r1
    35cc:	10 92 0f 04 	sts	0x040F, r1
    35d0:	10 92 f5 03 	sts	0x03F5, r1
    35d4:	10 92 f4 03 	sts	0x03F4, r1
    35d8:	10 92 f7 03 	sts	0x03F7, r1
    35dc:	10 92 f6 03 	sts	0x03F6, r1
    35e0:	0f 90       	pop	r0
    35e2:	0f 90       	pop	r0
    35e4:	df 91       	pop	r29
    35e6:	cf 91       	pop	r28
    35e8:	08 95       	ret

000035ea <UnityEnd>:
    35ea:	cf 93       	push	r28
    35ec:	df 93       	push	r29
    35ee:	cd b7       	in	r28, 0x3d	; 61
    35f0:	de b7       	in	r29, 0x3e	; 62
    35f2:	80 91 2a 04 	lds	r24, 0x042A
    35f6:	90 91 2b 04 	lds	r25, 0x042B
    35fa:	bc 01       	movw	r22, r24
    35fc:	8a e0       	ldi	r24, 0x0A	; 10
    35fe:	90 e0       	ldi	r25, 0x00	; 0
    3600:	0e 94 28 1e 	call	0x3c50	; 0x3c50 <fputc>
    3604:	87 e7       	ldi	r24, 0x77	; 119
    3606:	93 e0       	ldi	r25, 0x03	; 3
    3608:	0e 94 54 01 	call	0x2a8	; 0x2a8 <UnityPrint>
    360c:	80 91 2a 04 	lds	r24, 0x042A
    3610:	90 91 2b 04 	lds	r25, 0x042B
    3614:	bc 01       	movw	r22, r24
    3616:	8a e0       	ldi	r24, 0x0A	; 10
    3618:	90 e0       	ldi	r25, 0x00	; 0
    361a:	0e 94 28 1e 	call	0x3c50	; 0x3c50 <fputc>
    361e:	80 91 fc 03 	lds	r24, 0x03FC
    3622:	90 91 fd 03 	lds	r25, 0x03FD
    3626:	a0 91 fe 03 	lds	r26, 0x03FE
    362a:	b0 91 ff 03 	lds	r27, 0x03FF
    362e:	bc 01       	movw	r22, r24
    3630:	cd 01       	movw	r24, r26
    3632:	0e 94 ea 02 	call	0x5d4	; 0x5d4 <UnityPrintNumber>
    3636:	8f e8       	ldi	r24, 0x8F	; 143
    3638:	93 e0       	ldi	r25, 0x03	; 3
    363a:	0e 94 54 01 	call	0x2a8	; 0x2a8 <UnityPrint>
    363e:	80 91 00 04 	lds	r24, 0x0400
    3642:	90 91 01 04 	lds	r25, 0x0401
    3646:	a0 91 02 04 	lds	r26, 0x0402
    364a:	b0 91 03 04 	lds	r27, 0x0403
    364e:	bc 01       	movw	r22, r24
    3650:	cd 01       	movw	r24, r26
    3652:	0e 94 ea 02 	call	0x5d4	; 0x5d4 <UnityPrintNumber>
    3656:	87 e9       	ldi	r24, 0x97	; 151
    3658:	93 e0       	ldi	r25, 0x03	; 3
    365a:	0e 94 54 01 	call	0x2a8	; 0x2a8 <UnityPrint>
    365e:	80 91 04 04 	lds	r24, 0x0404
    3662:	90 91 05 04 	lds	r25, 0x0405
    3666:	a0 91 06 04 	lds	r26, 0x0406
    366a:	b0 91 07 04 	lds	r27, 0x0407
    366e:	bc 01       	movw	r22, r24
    3670:	cd 01       	movw	r24, r26
    3672:	0e 94 ea 02 	call	0x5d4	; 0x5d4 <UnityPrintNumber>
    3676:	82 ea       	ldi	r24, 0xA2	; 162
    3678:	93 e0       	ldi	r25, 0x03	; 3
    367a:	0e 94 54 01 	call	0x2a8	; 0x2a8 <UnityPrint>
    367e:	80 91 2a 04 	lds	r24, 0x042A
    3682:	90 91 2b 04 	lds	r25, 0x042B
    3686:	bc 01       	movw	r22, r24
    3688:	8a e0       	ldi	r24, 0x0A	; 10
    368a:	90 e0       	ldi	r25, 0x00	; 0
    368c:	0e 94 28 1e 	call	0x3c50	; 0x3c50 <fputc>
    3690:	80 91 00 04 	lds	r24, 0x0400
    3694:	90 91 01 04 	lds	r25, 0x0401
    3698:	a0 91 02 04 	lds	r26, 0x0402
    369c:	b0 91 03 04 	lds	r27, 0x0403
    36a0:	00 97       	sbiw	r24, 0x00	; 0
    36a2:	a1 05       	cpc	r26, r1
    36a4:	b1 05       	cpc	r27, r1
    36a6:	29 f4       	brne	.+10     	; 0x36b2 <UnityEnd+0xc8>
    36a8:	80 e0       	ldi	r24, 0x00	; 0
    36aa:	92 e0       	ldi	r25, 0x02	; 2
    36ac:	0e 94 54 01 	call	0x2a8	; 0x2a8 <UnityPrint>
    36b0:	04 c0       	rjmp	.+8      	; 0x36ba <UnityEnd+0xd0>
    36b2:	88 e0       	ldi	r24, 0x08	; 8
    36b4:	92 e0       	ldi	r25, 0x02	; 2
    36b6:	0e 94 54 01 	call	0x2a8	; 0x2a8 <UnityPrint>
    36ba:	80 91 2a 04 	lds	r24, 0x042A
    36be:	90 91 2b 04 	lds	r25, 0x042B
    36c2:	bc 01       	movw	r22, r24
    36c4:	8a e0       	ldi	r24, 0x0A	; 10
    36c6:	90 e0       	ldi	r25, 0x00	; 0
    36c8:	0e 94 28 1e 	call	0x3c50	; 0x3c50 <fputc>
    36cc:	80 91 00 04 	lds	r24, 0x0400
    36d0:	90 91 01 04 	lds	r25, 0x0401
    36d4:	a0 91 02 04 	lds	r26, 0x0402
    36d8:	b0 91 03 04 	lds	r27, 0x0403
    36dc:	df 91       	pop	r29
    36de:	cf 91       	pop	r28
    36e0:	08 95       	ret

000036e2 <main>:
    36e2:	85 ed       	ldi	r24, 0xD5	; 213
    36e4:	93 e0       	ldi	r25, 0x03	; 3
    36e6:	0e 94 a6 1a 	call	0x354c	; 0x354c <UnityBegin>
    36ea:	4a e1       	ldi	r20, 0x1A	; 26
    36ec:	50 e0       	ldi	r21, 0x00	; 0
    36ee:	64 ee       	ldi	r22, 0xE4	; 228
    36f0:	73 e0       	ldi	r23, 0x03	; 3
    36f2:	87 ec       	ldi	r24, 0xC7	; 199
    36f4:	90 e0       	ldi	r25, 0x00	; 0
    36f6:	0e 94 4c 1a 	call	0x3498	; 0x3498 <UnityDefaultTestRun>
    36fa:	0c 94 f5 1a 	jmp	0x35ea	; 0x35ea <UnityEnd>

000036fe <__udivmodsi4>:
    36fe:	a1 e2       	ldi	r26, 0x21	; 33
    3700:	1a 2e       	mov	r1, r26
    3702:	aa 1b       	sub	r26, r26
    3704:	bb 1b       	sub	r27, r27
    3706:	fd 01       	movw	r30, r26
    3708:	0d c0       	rjmp	.+26     	; 0x3724 <__udivmodsi4_ep>

0000370a <__udivmodsi4_loop>:
    370a:	aa 1f       	adc	r26, r26
    370c:	bb 1f       	adc	r27, r27
    370e:	ee 1f       	adc	r30, r30
    3710:	ff 1f       	adc	r31, r31
    3712:	a2 17       	cp	r26, r18
    3714:	b3 07       	cpc	r27, r19
    3716:	e4 07       	cpc	r30, r20
    3718:	f5 07       	cpc	r31, r21
    371a:	20 f0       	brcs	.+8      	; 0x3724 <__udivmodsi4_ep>
    371c:	a2 1b       	sub	r26, r18
    371e:	b3 0b       	sbc	r27, r19
    3720:	e4 0b       	sbc	r30, r20
    3722:	f5 0b       	sbc	r31, r21

00003724 <__udivmodsi4_ep>:
    3724:	66 1f       	adc	r22, r22
    3726:	77 1f       	adc	r23, r23
    3728:	88 1f       	adc	r24, r24
    372a:	99 1f       	adc	r25, r25
    372c:	1a 94       	dec	r1
    372e:	69 f7       	brne	.-38     	; 0x370a <__udivmodsi4_loop>
    3730:	60 95       	com	r22
    3732:	70 95       	com	r23
    3734:	80 95       	com	r24
    3736:	90 95       	com	r25
    3738:	9b 01       	movw	r18, r22
    373a:	ac 01       	movw	r20, r24
    373c:	bd 01       	movw	r22, r26
    373e:	cf 01       	movw	r24, r30
    3740:	08 95       	ret

00003742 <__divmodsi4>:
    3742:	05 2e       	mov	r0, r21
    3744:	97 fb       	bst	r25, 7
    3746:	1e f4       	brtc	.+6      	; 0x374e <__divmodsi4+0xc>
    3748:	00 94       	com	r0
    374a:	0e 94 b8 1b 	call	0x3770	; 0x3770 <__negsi2>
    374e:	57 fd       	sbrc	r21, 7
    3750:	07 d0       	rcall	.+14     	; 0x3760 <__divmodsi4_neg2>
    3752:	0e 94 7f 1b 	call	0x36fe	; 0x36fe <__udivmodsi4>
    3756:	07 fc       	sbrc	r0, 7
    3758:	03 d0       	rcall	.+6      	; 0x3760 <__divmodsi4_neg2>
    375a:	4e f4       	brtc	.+18     	; 0x376e <__divmodsi4_exit>
    375c:	0c 94 b8 1b 	jmp	0x3770	; 0x3770 <__negsi2>

00003760 <__divmodsi4_neg2>:
    3760:	50 95       	com	r21
    3762:	40 95       	com	r20
    3764:	30 95       	com	r19
    3766:	21 95       	neg	r18
    3768:	3f 4f       	sbci	r19, 0xFF	; 255
    376a:	4f 4f       	sbci	r20, 0xFF	; 255
    376c:	5f 4f       	sbci	r21, 0xFF	; 255

0000376e <__divmodsi4_exit>:
    376e:	08 95       	ret

00003770 <__negsi2>:
    3770:	90 95       	com	r25
    3772:	80 95       	com	r24
    3774:	70 95       	com	r23
    3776:	61 95       	neg	r22
    3778:	7f 4f       	sbci	r23, 0xFF	; 255
    377a:	8f 4f       	sbci	r24, 0xFF	; 255
    377c:	9f 4f       	sbci	r25, 0xFF	; 255
    377e:	08 95       	ret

00003780 <__tablejump2__>:
    3780:	ee 0f       	add	r30, r30
    3782:	ff 1f       	adc	r31, r31

00003784 <__tablejump__>:
    3784:	05 90       	lpm	r0, Z+
    3786:	f4 91       	lpm	r31, Z
    3788:	e0 2d       	mov	r30, r0
    378a:	19 94       	eijmp

0000378c <__subsf3>:
    378c:	50 58       	subi	r21, 0x80	; 128

0000378e <__addsf3>:
    378e:	bb 27       	eor	r27, r27
    3790:	aa 27       	eor	r26, r26
    3792:	0e d0       	rcall	.+28     	; 0x37b0 <__addsf3x>
    3794:	75 c1       	rjmp	.+746    	; 0x3a80 <__fp_round>
    3796:	66 d1       	rcall	.+716    	; 0x3a64 <__fp_pscA>
    3798:	30 f0       	brcs	.+12     	; 0x37a6 <__addsf3+0x18>
    379a:	6b d1       	rcall	.+726    	; 0x3a72 <__fp_pscB>
    379c:	20 f0       	brcs	.+8      	; 0x37a6 <__addsf3+0x18>
    379e:	31 f4       	brne	.+12     	; 0x37ac <__addsf3+0x1e>
    37a0:	9f 3f       	cpi	r25, 0xFF	; 255
    37a2:	11 f4       	brne	.+4      	; 0x37a8 <__addsf3+0x1a>
    37a4:	1e f4       	brtc	.+6      	; 0x37ac <__addsf3+0x1e>
    37a6:	5b c1       	rjmp	.+694    	; 0x3a5e <__fp_nan>
    37a8:	0e f4       	brtc	.+2      	; 0x37ac <__addsf3+0x1e>
    37aa:	e0 95       	com	r30
    37ac:	e7 fb       	bst	r30, 7
    37ae:	51 c1       	rjmp	.+674    	; 0x3a52 <__fp_inf>

000037b0 <__addsf3x>:
    37b0:	e9 2f       	mov	r30, r25
    37b2:	77 d1       	rcall	.+750    	; 0x3aa2 <__fp_split3>
    37b4:	80 f3       	brcs	.-32     	; 0x3796 <__addsf3+0x8>
    37b6:	ba 17       	cp	r27, r26
    37b8:	62 07       	cpc	r22, r18
    37ba:	73 07       	cpc	r23, r19
    37bc:	84 07       	cpc	r24, r20
    37be:	95 07       	cpc	r25, r21
    37c0:	18 f0       	brcs	.+6      	; 0x37c8 <__addsf3x+0x18>
    37c2:	71 f4       	brne	.+28     	; 0x37e0 <__addsf3x+0x30>
    37c4:	9e f5       	brtc	.+102    	; 0x382c <__addsf3x+0x7c>
    37c6:	8f c1       	rjmp	.+798    	; 0x3ae6 <__fp_zero>
    37c8:	0e f4       	brtc	.+2      	; 0x37cc <__addsf3x+0x1c>
    37ca:	e0 95       	com	r30
    37cc:	0b 2e       	mov	r0, r27
    37ce:	ba 2f       	mov	r27, r26
    37d0:	a0 2d       	mov	r26, r0
    37d2:	0b 01       	movw	r0, r22
    37d4:	b9 01       	movw	r22, r18
    37d6:	90 01       	movw	r18, r0
    37d8:	0c 01       	movw	r0, r24
    37da:	ca 01       	movw	r24, r20
    37dc:	a0 01       	movw	r20, r0
    37de:	11 24       	eor	r1, r1
    37e0:	ff 27       	eor	r31, r31
    37e2:	59 1b       	sub	r21, r25
    37e4:	99 f0       	breq	.+38     	; 0x380c <__addsf3x+0x5c>
    37e6:	59 3f       	cpi	r21, 0xF9	; 249
    37e8:	50 f4       	brcc	.+20     	; 0x37fe <__addsf3x+0x4e>
    37ea:	50 3e       	cpi	r21, 0xE0	; 224
    37ec:	68 f1       	brcs	.+90     	; 0x3848 <__addsf3x+0x98>
    37ee:	1a 16       	cp	r1, r26
    37f0:	f0 40       	sbci	r31, 0x00	; 0
    37f2:	a2 2f       	mov	r26, r18
    37f4:	23 2f       	mov	r18, r19
    37f6:	34 2f       	mov	r19, r20
    37f8:	44 27       	eor	r20, r20
    37fa:	58 5f       	subi	r21, 0xF8	; 248
    37fc:	f3 cf       	rjmp	.-26     	; 0x37e4 <__addsf3x+0x34>
    37fe:	46 95       	lsr	r20
    3800:	37 95       	ror	r19
    3802:	27 95       	ror	r18
    3804:	a7 95       	ror	r26
    3806:	f0 40       	sbci	r31, 0x00	; 0
    3808:	53 95       	inc	r21
    380a:	c9 f7       	brne	.-14     	; 0x37fe <__addsf3x+0x4e>
    380c:	7e f4       	brtc	.+30     	; 0x382c <__addsf3x+0x7c>
    380e:	1f 16       	cp	r1, r31
    3810:	ba 0b       	sbc	r27, r26
    3812:	62 0b       	sbc	r22, r18
    3814:	73 0b       	sbc	r23, r19
    3816:	84 0b       	sbc	r24, r20
    3818:	ba f0       	brmi	.+46     	; 0x3848 <__addsf3x+0x98>
    381a:	91 50       	subi	r25, 0x01	; 1
    381c:	a1 f0       	breq	.+40     	; 0x3846 <__addsf3x+0x96>
    381e:	ff 0f       	add	r31, r31
    3820:	bb 1f       	adc	r27, r27
    3822:	66 1f       	adc	r22, r22
    3824:	77 1f       	adc	r23, r23
    3826:	88 1f       	adc	r24, r24
    3828:	c2 f7       	brpl	.-16     	; 0x381a <__addsf3x+0x6a>
    382a:	0e c0       	rjmp	.+28     	; 0x3848 <__addsf3x+0x98>
    382c:	ba 0f       	add	r27, r26
    382e:	62 1f       	adc	r22, r18
    3830:	73 1f       	adc	r23, r19
    3832:	84 1f       	adc	r24, r20
    3834:	48 f4       	brcc	.+18     	; 0x3848 <__addsf3x+0x98>
    3836:	87 95       	ror	r24
    3838:	77 95       	ror	r23
    383a:	67 95       	ror	r22
    383c:	b7 95       	ror	r27
    383e:	f7 95       	ror	r31
    3840:	9e 3f       	cpi	r25, 0xFE	; 254
    3842:	08 f0       	brcs	.+2      	; 0x3846 <__addsf3x+0x96>
    3844:	b3 cf       	rjmp	.-154    	; 0x37ac <__addsf3+0x1e>
    3846:	93 95       	inc	r25
    3848:	88 0f       	add	r24, r24
    384a:	08 f0       	brcs	.+2      	; 0x384e <__addsf3x+0x9e>
    384c:	99 27       	eor	r25, r25
    384e:	ee 0f       	add	r30, r30
    3850:	97 95       	ror	r25
    3852:	87 95       	ror	r24
    3854:	08 95       	ret

00003856 <__cmpsf2>:
    3856:	d9 d0       	rcall	.+434    	; 0x3a0a <__fp_cmp>
    3858:	08 f4       	brcc	.+2      	; 0x385c <__cmpsf2+0x6>
    385a:	81 e0       	ldi	r24, 0x01	; 1
    385c:	08 95       	ret

0000385e <__divsf3>:
    385e:	0c d0       	rcall	.+24     	; 0x3878 <__divsf3x>
    3860:	0f c1       	rjmp	.+542    	; 0x3a80 <__fp_round>
    3862:	07 d1       	rcall	.+526    	; 0x3a72 <__fp_pscB>
    3864:	40 f0       	brcs	.+16     	; 0x3876 <__divsf3+0x18>
    3866:	fe d0       	rcall	.+508    	; 0x3a64 <__fp_pscA>
    3868:	30 f0       	brcs	.+12     	; 0x3876 <__divsf3+0x18>
    386a:	21 f4       	brne	.+8      	; 0x3874 <__divsf3+0x16>
    386c:	5f 3f       	cpi	r21, 0xFF	; 255
    386e:	19 f0       	breq	.+6      	; 0x3876 <__divsf3+0x18>
    3870:	f0 c0       	rjmp	.+480    	; 0x3a52 <__fp_inf>
    3872:	51 11       	cpse	r21, r1
    3874:	39 c1       	rjmp	.+626    	; 0x3ae8 <__fp_szero>
    3876:	f3 c0       	rjmp	.+486    	; 0x3a5e <__fp_nan>

00003878 <__divsf3x>:
    3878:	14 d1       	rcall	.+552    	; 0x3aa2 <__fp_split3>
    387a:	98 f3       	brcs	.-26     	; 0x3862 <__divsf3+0x4>

0000387c <__divsf3_pse>:
    387c:	99 23       	and	r25, r25
    387e:	c9 f3       	breq	.-14     	; 0x3872 <__divsf3+0x14>
    3880:	55 23       	and	r21, r21
    3882:	b1 f3       	breq	.-20     	; 0x3870 <__divsf3+0x12>
    3884:	95 1b       	sub	r25, r21
    3886:	55 0b       	sbc	r21, r21
    3888:	bb 27       	eor	r27, r27
    388a:	aa 27       	eor	r26, r26
    388c:	62 17       	cp	r22, r18
    388e:	73 07       	cpc	r23, r19
    3890:	84 07       	cpc	r24, r20
    3892:	38 f0       	brcs	.+14     	; 0x38a2 <__divsf3_pse+0x26>
    3894:	9f 5f       	subi	r25, 0xFF	; 255
    3896:	5f 4f       	sbci	r21, 0xFF	; 255
    3898:	22 0f       	add	r18, r18
    389a:	33 1f       	adc	r19, r19
    389c:	44 1f       	adc	r20, r20
    389e:	aa 1f       	adc	r26, r26
    38a0:	a9 f3       	breq	.-22     	; 0x388c <__divsf3_pse+0x10>
    38a2:	33 d0       	rcall	.+102    	; 0x390a <__divsf3_pse+0x8e>
    38a4:	0e 2e       	mov	r0, r30
    38a6:	3a f0       	brmi	.+14     	; 0x38b6 <__divsf3_pse+0x3a>
    38a8:	e0 e8       	ldi	r30, 0x80	; 128
    38aa:	30 d0       	rcall	.+96     	; 0x390c <__divsf3_pse+0x90>
    38ac:	91 50       	subi	r25, 0x01	; 1
    38ae:	50 40       	sbci	r21, 0x00	; 0
    38b0:	e6 95       	lsr	r30
    38b2:	00 1c       	adc	r0, r0
    38b4:	ca f7       	brpl	.-14     	; 0x38a8 <__divsf3_pse+0x2c>
    38b6:	29 d0       	rcall	.+82     	; 0x390a <__divsf3_pse+0x8e>
    38b8:	fe 2f       	mov	r31, r30
    38ba:	27 d0       	rcall	.+78     	; 0x390a <__divsf3_pse+0x8e>
    38bc:	66 0f       	add	r22, r22
    38be:	77 1f       	adc	r23, r23
    38c0:	88 1f       	adc	r24, r24
    38c2:	bb 1f       	adc	r27, r27
    38c4:	26 17       	cp	r18, r22
    38c6:	37 07       	cpc	r19, r23
    38c8:	48 07       	cpc	r20, r24
    38ca:	ab 07       	cpc	r26, r27
    38cc:	b0 e8       	ldi	r27, 0x80	; 128
    38ce:	09 f0       	breq	.+2      	; 0x38d2 <__divsf3_pse+0x56>
    38d0:	bb 0b       	sbc	r27, r27
    38d2:	80 2d       	mov	r24, r0
    38d4:	bf 01       	movw	r22, r30
    38d6:	ff 27       	eor	r31, r31
    38d8:	93 58       	subi	r25, 0x83	; 131
    38da:	5f 4f       	sbci	r21, 0xFF	; 255
    38dc:	2a f0       	brmi	.+10     	; 0x38e8 <__divsf3_pse+0x6c>
    38de:	9e 3f       	cpi	r25, 0xFE	; 254
    38e0:	51 05       	cpc	r21, r1
    38e2:	68 f0       	brcs	.+26     	; 0x38fe <__divsf3_pse+0x82>
    38e4:	b6 c0       	rjmp	.+364    	; 0x3a52 <__fp_inf>
    38e6:	00 c1       	rjmp	.+512    	; 0x3ae8 <__fp_szero>
    38e8:	5f 3f       	cpi	r21, 0xFF	; 255
    38ea:	ec f3       	brlt	.-6      	; 0x38e6 <__divsf3_pse+0x6a>
    38ec:	98 3e       	cpi	r25, 0xE8	; 232
    38ee:	dc f3       	brlt	.-10     	; 0x38e6 <__divsf3_pse+0x6a>
    38f0:	86 95       	lsr	r24
    38f2:	77 95       	ror	r23
    38f4:	67 95       	ror	r22
    38f6:	b7 95       	ror	r27
    38f8:	f7 95       	ror	r31
    38fa:	9f 5f       	subi	r25, 0xFF	; 255
    38fc:	c9 f7       	brne	.-14     	; 0x38f0 <__divsf3_pse+0x74>
    38fe:	88 0f       	add	r24, r24
    3900:	91 1d       	adc	r25, r1
    3902:	96 95       	lsr	r25
    3904:	87 95       	ror	r24
    3906:	97 f9       	bld	r25, 7
    3908:	08 95       	ret
    390a:	e1 e0       	ldi	r30, 0x01	; 1
    390c:	66 0f       	add	r22, r22
    390e:	77 1f       	adc	r23, r23
    3910:	88 1f       	adc	r24, r24
    3912:	bb 1f       	adc	r27, r27
    3914:	62 17       	cp	r22, r18
    3916:	73 07       	cpc	r23, r19
    3918:	84 07       	cpc	r24, r20
    391a:	ba 07       	cpc	r27, r26
    391c:	20 f0       	brcs	.+8      	; 0x3926 <__divsf3_pse+0xaa>
    391e:	62 1b       	sub	r22, r18
    3920:	73 0b       	sbc	r23, r19
    3922:	84 0b       	sbc	r24, r20
    3924:	ba 0b       	sbc	r27, r26
    3926:	ee 1f       	adc	r30, r30
    3928:	88 f7       	brcc	.-30     	; 0x390c <__divsf3_pse+0x90>
    392a:	e0 95       	com	r30
    392c:	08 95       	ret

0000392e <__fixsfsi>:
    392e:	04 d0       	rcall	.+8      	; 0x3938 <__fixunssfsi>
    3930:	68 94       	set
    3932:	b1 11       	cpse	r27, r1
    3934:	d9 c0       	rjmp	.+434    	; 0x3ae8 <__fp_szero>
    3936:	08 95       	ret

00003938 <__fixunssfsi>:
    3938:	bc d0       	rcall	.+376    	; 0x3ab2 <__fp_splitA>
    393a:	88 f0       	brcs	.+34     	; 0x395e <__fixunssfsi+0x26>
    393c:	9f 57       	subi	r25, 0x7F	; 127
    393e:	90 f0       	brcs	.+36     	; 0x3964 <__fixunssfsi+0x2c>
    3940:	b9 2f       	mov	r27, r25
    3942:	99 27       	eor	r25, r25
    3944:	b7 51       	subi	r27, 0x17	; 23
    3946:	a0 f0       	brcs	.+40     	; 0x3970 <__fixunssfsi+0x38>
    3948:	d1 f0       	breq	.+52     	; 0x397e <__fixunssfsi+0x46>
    394a:	66 0f       	add	r22, r22
    394c:	77 1f       	adc	r23, r23
    394e:	88 1f       	adc	r24, r24
    3950:	99 1f       	adc	r25, r25
    3952:	1a f0       	brmi	.+6      	; 0x395a <__fixunssfsi+0x22>
    3954:	ba 95       	dec	r27
    3956:	c9 f7       	brne	.-14     	; 0x394a <__fixunssfsi+0x12>
    3958:	12 c0       	rjmp	.+36     	; 0x397e <__fixunssfsi+0x46>
    395a:	b1 30       	cpi	r27, 0x01	; 1
    395c:	81 f0       	breq	.+32     	; 0x397e <__fixunssfsi+0x46>
    395e:	c3 d0       	rcall	.+390    	; 0x3ae6 <__fp_zero>
    3960:	b1 e0       	ldi	r27, 0x01	; 1
    3962:	08 95       	ret
    3964:	c0 c0       	rjmp	.+384    	; 0x3ae6 <__fp_zero>
    3966:	67 2f       	mov	r22, r23
    3968:	78 2f       	mov	r23, r24
    396a:	88 27       	eor	r24, r24
    396c:	b8 5f       	subi	r27, 0xF8	; 248
    396e:	39 f0       	breq	.+14     	; 0x397e <__fixunssfsi+0x46>
    3970:	b9 3f       	cpi	r27, 0xF9	; 249
    3972:	cc f3       	brlt	.-14     	; 0x3966 <__fixunssfsi+0x2e>
    3974:	86 95       	lsr	r24
    3976:	77 95       	ror	r23
    3978:	67 95       	ror	r22
    397a:	b3 95       	inc	r27
    397c:	d9 f7       	brne	.-10     	; 0x3974 <__fixunssfsi+0x3c>
    397e:	3e f4       	brtc	.+14     	; 0x398e <__fixunssfsi+0x56>
    3980:	90 95       	com	r25
    3982:	80 95       	com	r24
    3984:	70 95       	com	r23
    3986:	61 95       	neg	r22
    3988:	7f 4f       	sbci	r23, 0xFF	; 255
    398a:	8f 4f       	sbci	r24, 0xFF	; 255
    398c:	9f 4f       	sbci	r25, 0xFF	; 255
    398e:	08 95       	ret

00003990 <__floatunsisf>:
    3990:	e8 94       	clt
    3992:	09 c0       	rjmp	.+18     	; 0x39a6 <__floatsisf+0x12>

00003994 <__floatsisf>:
    3994:	97 fb       	bst	r25, 7
    3996:	3e f4       	brtc	.+14     	; 0x39a6 <__floatsisf+0x12>
    3998:	90 95       	com	r25
    399a:	80 95       	com	r24
    399c:	70 95       	com	r23
    399e:	61 95       	neg	r22
    39a0:	7f 4f       	sbci	r23, 0xFF	; 255
    39a2:	8f 4f       	sbci	r24, 0xFF	; 255
    39a4:	9f 4f       	sbci	r25, 0xFF	; 255
    39a6:	99 23       	and	r25, r25
    39a8:	a9 f0       	breq	.+42     	; 0x39d4 <__floatsisf+0x40>
    39aa:	f9 2f       	mov	r31, r25
    39ac:	96 e9       	ldi	r25, 0x96	; 150
    39ae:	bb 27       	eor	r27, r27
    39b0:	93 95       	inc	r25
    39b2:	f6 95       	lsr	r31
    39b4:	87 95       	ror	r24
    39b6:	77 95       	ror	r23
    39b8:	67 95       	ror	r22
    39ba:	b7 95       	ror	r27
    39bc:	f1 11       	cpse	r31, r1
    39be:	f8 cf       	rjmp	.-16     	; 0x39b0 <__floatsisf+0x1c>
    39c0:	fa f4       	brpl	.+62     	; 0x3a00 <__floatsisf+0x6c>
    39c2:	bb 0f       	add	r27, r27
    39c4:	11 f4       	brne	.+4      	; 0x39ca <__floatsisf+0x36>
    39c6:	60 ff       	sbrs	r22, 0
    39c8:	1b c0       	rjmp	.+54     	; 0x3a00 <__floatsisf+0x6c>
    39ca:	6f 5f       	subi	r22, 0xFF	; 255
    39cc:	7f 4f       	sbci	r23, 0xFF	; 255
    39ce:	8f 4f       	sbci	r24, 0xFF	; 255
    39d0:	9f 4f       	sbci	r25, 0xFF	; 255
    39d2:	16 c0       	rjmp	.+44     	; 0x3a00 <__floatsisf+0x6c>
    39d4:	88 23       	and	r24, r24
    39d6:	11 f0       	breq	.+4      	; 0x39dc <__floatsisf+0x48>
    39d8:	96 e9       	ldi	r25, 0x96	; 150
    39da:	11 c0       	rjmp	.+34     	; 0x39fe <__floatsisf+0x6a>
    39dc:	77 23       	and	r23, r23
    39de:	21 f0       	breq	.+8      	; 0x39e8 <__floatsisf+0x54>
    39e0:	9e e8       	ldi	r25, 0x8E	; 142
    39e2:	87 2f       	mov	r24, r23
    39e4:	76 2f       	mov	r23, r22
    39e6:	05 c0       	rjmp	.+10     	; 0x39f2 <__floatsisf+0x5e>
    39e8:	66 23       	and	r22, r22
    39ea:	71 f0       	breq	.+28     	; 0x3a08 <__floatsisf+0x74>
    39ec:	96 e8       	ldi	r25, 0x86	; 134
    39ee:	86 2f       	mov	r24, r22
    39f0:	70 e0       	ldi	r23, 0x00	; 0
    39f2:	60 e0       	ldi	r22, 0x00	; 0
    39f4:	2a f0       	brmi	.+10     	; 0x3a00 <__floatsisf+0x6c>
    39f6:	9a 95       	dec	r25
    39f8:	66 0f       	add	r22, r22
    39fa:	77 1f       	adc	r23, r23
    39fc:	88 1f       	adc	r24, r24
    39fe:	da f7       	brpl	.-10     	; 0x39f6 <__floatsisf+0x62>
    3a00:	88 0f       	add	r24, r24
    3a02:	96 95       	lsr	r25
    3a04:	87 95       	ror	r24
    3a06:	97 f9       	bld	r25, 7
    3a08:	08 95       	ret

00003a0a <__fp_cmp>:
    3a0a:	99 0f       	add	r25, r25
    3a0c:	00 08       	sbc	r0, r0
    3a0e:	55 0f       	add	r21, r21
    3a10:	aa 0b       	sbc	r26, r26
    3a12:	e0 e8       	ldi	r30, 0x80	; 128
    3a14:	fe ef       	ldi	r31, 0xFE	; 254
    3a16:	16 16       	cp	r1, r22
    3a18:	17 06       	cpc	r1, r23
    3a1a:	e8 07       	cpc	r30, r24
    3a1c:	f9 07       	cpc	r31, r25
    3a1e:	c0 f0       	brcs	.+48     	; 0x3a50 <__fp_cmp+0x46>
    3a20:	12 16       	cp	r1, r18
    3a22:	13 06       	cpc	r1, r19
    3a24:	e4 07       	cpc	r30, r20
    3a26:	f5 07       	cpc	r31, r21
    3a28:	98 f0       	brcs	.+38     	; 0x3a50 <__fp_cmp+0x46>
    3a2a:	62 1b       	sub	r22, r18
    3a2c:	73 0b       	sbc	r23, r19
    3a2e:	84 0b       	sbc	r24, r20
    3a30:	95 0b       	sbc	r25, r21
    3a32:	39 f4       	brne	.+14     	; 0x3a42 <__fp_cmp+0x38>
    3a34:	0a 26       	eor	r0, r26
    3a36:	61 f0       	breq	.+24     	; 0x3a50 <__fp_cmp+0x46>
    3a38:	23 2b       	or	r18, r19
    3a3a:	24 2b       	or	r18, r20
    3a3c:	25 2b       	or	r18, r21
    3a3e:	21 f4       	brne	.+8      	; 0x3a48 <__fp_cmp+0x3e>
    3a40:	08 95       	ret
    3a42:	0a 26       	eor	r0, r26
    3a44:	09 f4       	brne	.+2      	; 0x3a48 <__fp_cmp+0x3e>
    3a46:	a1 40       	sbci	r26, 0x01	; 1
    3a48:	a6 95       	lsr	r26
    3a4a:	8f ef       	ldi	r24, 0xFF	; 255
    3a4c:	81 1d       	adc	r24, r1
    3a4e:	81 1d       	adc	r24, r1
    3a50:	08 95       	ret

00003a52 <__fp_inf>:
    3a52:	97 f9       	bld	r25, 7
    3a54:	9f 67       	ori	r25, 0x7F	; 127
    3a56:	80 e8       	ldi	r24, 0x80	; 128
    3a58:	70 e0       	ldi	r23, 0x00	; 0
    3a5a:	60 e0       	ldi	r22, 0x00	; 0
    3a5c:	08 95       	ret

00003a5e <__fp_nan>:
    3a5e:	9f ef       	ldi	r25, 0xFF	; 255
    3a60:	80 ec       	ldi	r24, 0xC0	; 192
    3a62:	08 95       	ret

00003a64 <__fp_pscA>:
    3a64:	00 24       	eor	r0, r0
    3a66:	0a 94       	dec	r0
    3a68:	16 16       	cp	r1, r22
    3a6a:	17 06       	cpc	r1, r23
    3a6c:	18 06       	cpc	r1, r24
    3a6e:	09 06       	cpc	r0, r25
    3a70:	08 95       	ret

00003a72 <__fp_pscB>:
    3a72:	00 24       	eor	r0, r0
    3a74:	0a 94       	dec	r0
    3a76:	12 16       	cp	r1, r18
    3a78:	13 06       	cpc	r1, r19
    3a7a:	14 06       	cpc	r1, r20
    3a7c:	05 06       	cpc	r0, r21
    3a7e:	08 95       	ret

00003a80 <__fp_round>:
    3a80:	09 2e       	mov	r0, r25
    3a82:	03 94       	inc	r0
    3a84:	00 0c       	add	r0, r0
    3a86:	11 f4       	brne	.+4      	; 0x3a8c <__fp_round+0xc>
    3a88:	88 23       	and	r24, r24
    3a8a:	52 f0       	brmi	.+20     	; 0x3aa0 <__fp_round+0x20>
    3a8c:	bb 0f       	add	r27, r27
    3a8e:	40 f4       	brcc	.+16     	; 0x3aa0 <__fp_round+0x20>
    3a90:	bf 2b       	or	r27, r31
    3a92:	11 f4       	brne	.+4      	; 0x3a98 <__fp_round+0x18>
    3a94:	60 ff       	sbrs	r22, 0
    3a96:	04 c0       	rjmp	.+8      	; 0x3aa0 <__fp_round+0x20>
    3a98:	6f 5f       	subi	r22, 0xFF	; 255
    3a9a:	7f 4f       	sbci	r23, 0xFF	; 255
    3a9c:	8f 4f       	sbci	r24, 0xFF	; 255
    3a9e:	9f 4f       	sbci	r25, 0xFF	; 255
    3aa0:	08 95       	ret

00003aa2 <__fp_split3>:
    3aa2:	57 fd       	sbrc	r21, 7
    3aa4:	90 58       	subi	r25, 0x80	; 128
    3aa6:	44 0f       	add	r20, r20
    3aa8:	55 1f       	adc	r21, r21
    3aaa:	59 f0       	breq	.+22     	; 0x3ac2 <__fp_splitA+0x10>
    3aac:	5f 3f       	cpi	r21, 0xFF	; 255
    3aae:	71 f0       	breq	.+28     	; 0x3acc <__fp_splitA+0x1a>
    3ab0:	47 95       	ror	r20

00003ab2 <__fp_splitA>:
    3ab2:	88 0f       	add	r24, r24
    3ab4:	97 fb       	bst	r25, 7
    3ab6:	99 1f       	adc	r25, r25
    3ab8:	61 f0       	breq	.+24     	; 0x3ad2 <__fp_splitA+0x20>
    3aba:	9f 3f       	cpi	r25, 0xFF	; 255
    3abc:	79 f0       	breq	.+30     	; 0x3adc <__fp_splitA+0x2a>
    3abe:	87 95       	ror	r24
    3ac0:	08 95       	ret
    3ac2:	12 16       	cp	r1, r18
    3ac4:	13 06       	cpc	r1, r19
    3ac6:	14 06       	cpc	r1, r20
    3ac8:	55 1f       	adc	r21, r21
    3aca:	f2 cf       	rjmp	.-28     	; 0x3ab0 <__fp_split3+0xe>
    3acc:	46 95       	lsr	r20
    3ace:	f1 df       	rcall	.-30     	; 0x3ab2 <__fp_splitA>
    3ad0:	08 c0       	rjmp	.+16     	; 0x3ae2 <__fp_splitA+0x30>
    3ad2:	16 16       	cp	r1, r22
    3ad4:	17 06       	cpc	r1, r23
    3ad6:	18 06       	cpc	r1, r24
    3ad8:	99 1f       	adc	r25, r25
    3ada:	f1 cf       	rjmp	.-30     	; 0x3abe <__fp_splitA+0xc>
    3adc:	86 95       	lsr	r24
    3ade:	71 05       	cpc	r23, r1
    3ae0:	61 05       	cpc	r22, r1
    3ae2:	08 94       	sec
    3ae4:	08 95       	ret

00003ae6 <__fp_zero>:
    3ae6:	e8 94       	clt

00003ae8 <__fp_szero>:
    3ae8:	bb 27       	eor	r27, r27
    3aea:	66 27       	eor	r22, r22
    3aec:	77 27       	eor	r23, r23
    3aee:	cb 01       	movw	r24, r22
    3af0:	97 f9       	bld	r25, 7
    3af2:	08 95       	ret

00003af4 <__gesf2>:
    3af4:	8a df       	rcall	.-236    	; 0x3a0a <__fp_cmp>
    3af6:	08 f4       	brcc	.+2      	; 0x3afa <__gesf2+0x6>
    3af8:	8f ef       	ldi	r24, 0xFF	; 255
    3afa:	08 95       	ret

00003afc <__mulsf3>:
    3afc:	0b d0       	rcall	.+22     	; 0x3b14 <__mulsf3x>
    3afe:	c0 cf       	rjmp	.-128    	; 0x3a80 <__fp_round>
    3b00:	b1 df       	rcall	.-158    	; 0x3a64 <__fp_pscA>
    3b02:	28 f0       	brcs	.+10     	; 0x3b0e <__mulsf3+0x12>
    3b04:	b6 df       	rcall	.-148    	; 0x3a72 <__fp_pscB>
    3b06:	18 f0       	brcs	.+6      	; 0x3b0e <__mulsf3+0x12>
    3b08:	95 23       	and	r25, r21
    3b0a:	09 f0       	breq	.+2      	; 0x3b0e <__mulsf3+0x12>
    3b0c:	a2 cf       	rjmp	.-188    	; 0x3a52 <__fp_inf>
    3b0e:	a7 cf       	rjmp	.-178    	; 0x3a5e <__fp_nan>
    3b10:	11 24       	eor	r1, r1
    3b12:	ea cf       	rjmp	.-44     	; 0x3ae8 <__fp_szero>

00003b14 <__mulsf3x>:
    3b14:	c6 df       	rcall	.-116    	; 0x3aa2 <__fp_split3>
    3b16:	a0 f3       	brcs	.-24     	; 0x3b00 <__mulsf3+0x4>

00003b18 <__mulsf3_pse>:
    3b18:	95 9f       	mul	r25, r21
    3b1a:	d1 f3       	breq	.-12     	; 0x3b10 <__mulsf3+0x14>
    3b1c:	95 0f       	add	r25, r21
    3b1e:	50 e0       	ldi	r21, 0x00	; 0
    3b20:	55 1f       	adc	r21, r21
    3b22:	62 9f       	mul	r22, r18
    3b24:	f0 01       	movw	r30, r0
    3b26:	72 9f       	mul	r23, r18
    3b28:	bb 27       	eor	r27, r27
    3b2a:	f0 0d       	add	r31, r0
    3b2c:	b1 1d       	adc	r27, r1
    3b2e:	63 9f       	mul	r22, r19
    3b30:	aa 27       	eor	r26, r26
    3b32:	f0 0d       	add	r31, r0
    3b34:	b1 1d       	adc	r27, r1
    3b36:	aa 1f       	adc	r26, r26
    3b38:	64 9f       	mul	r22, r20
    3b3a:	66 27       	eor	r22, r22
    3b3c:	b0 0d       	add	r27, r0
    3b3e:	a1 1d       	adc	r26, r1
    3b40:	66 1f       	adc	r22, r22
    3b42:	82 9f       	mul	r24, r18
    3b44:	22 27       	eor	r18, r18
    3b46:	b0 0d       	add	r27, r0
    3b48:	a1 1d       	adc	r26, r1
    3b4a:	62 1f       	adc	r22, r18
    3b4c:	73 9f       	mul	r23, r19
    3b4e:	b0 0d       	add	r27, r0
    3b50:	a1 1d       	adc	r26, r1
    3b52:	62 1f       	adc	r22, r18
    3b54:	83 9f       	mul	r24, r19
    3b56:	a0 0d       	add	r26, r0
    3b58:	61 1d       	adc	r22, r1
    3b5a:	22 1f       	adc	r18, r18
    3b5c:	74 9f       	mul	r23, r20
    3b5e:	33 27       	eor	r19, r19
    3b60:	a0 0d       	add	r26, r0
    3b62:	61 1d       	adc	r22, r1
    3b64:	23 1f       	adc	r18, r19
    3b66:	84 9f       	mul	r24, r20
    3b68:	60 0d       	add	r22, r0
    3b6a:	21 1d       	adc	r18, r1
    3b6c:	82 2f       	mov	r24, r18
    3b6e:	76 2f       	mov	r23, r22
    3b70:	6a 2f       	mov	r22, r26
    3b72:	11 24       	eor	r1, r1
    3b74:	9f 57       	subi	r25, 0x7F	; 127
    3b76:	50 40       	sbci	r21, 0x00	; 0
    3b78:	8a f0       	brmi	.+34     	; 0x3b9c <__mulsf3_pse+0x84>
    3b7a:	e1 f0       	breq	.+56     	; 0x3bb4 <__mulsf3_pse+0x9c>
    3b7c:	88 23       	and	r24, r24
    3b7e:	4a f0       	brmi	.+18     	; 0x3b92 <__mulsf3_pse+0x7a>
    3b80:	ee 0f       	add	r30, r30
    3b82:	ff 1f       	adc	r31, r31
    3b84:	bb 1f       	adc	r27, r27
    3b86:	66 1f       	adc	r22, r22
    3b88:	77 1f       	adc	r23, r23
    3b8a:	88 1f       	adc	r24, r24
    3b8c:	91 50       	subi	r25, 0x01	; 1
    3b8e:	50 40       	sbci	r21, 0x00	; 0
    3b90:	a9 f7       	brne	.-22     	; 0x3b7c <__mulsf3_pse+0x64>
    3b92:	9e 3f       	cpi	r25, 0xFE	; 254
    3b94:	51 05       	cpc	r21, r1
    3b96:	70 f0       	brcs	.+28     	; 0x3bb4 <__mulsf3_pse+0x9c>
    3b98:	5c cf       	rjmp	.-328    	; 0x3a52 <__fp_inf>
    3b9a:	a6 cf       	rjmp	.-180    	; 0x3ae8 <__fp_szero>
    3b9c:	5f 3f       	cpi	r21, 0xFF	; 255
    3b9e:	ec f3       	brlt	.-6      	; 0x3b9a <__mulsf3_pse+0x82>
    3ba0:	98 3e       	cpi	r25, 0xE8	; 232
    3ba2:	dc f3       	brlt	.-10     	; 0x3b9a <__mulsf3_pse+0x82>
    3ba4:	86 95       	lsr	r24
    3ba6:	77 95       	ror	r23
    3ba8:	67 95       	ror	r22
    3baa:	b7 95       	ror	r27
    3bac:	f7 95       	ror	r31
    3bae:	e7 95       	ror	r30
    3bb0:	9f 5f       	subi	r25, 0xFF	; 255
    3bb2:	c1 f7       	brne	.-16     	; 0x3ba4 <__mulsf3_pse+0x8c>
    3bb4:	fe 2b       	or	r31, r30
    3bb6:	88 0f       	add	r24, r24
    3bb8:	91 1d       	adc	r25, r1
    3bba:	96 95       	lsr	r25
    3bbc:	87 95       	ror	r24
    3bbe:	97 f9       	bld	r25, 7
    3bc0:	08 95       	ret

00003bc2 <setjmp>:
    3bc2:	dc 01       	movw	r26, r24
    3bc4:	2d 92       	st	X+, r2
    3bc6:	3d 92       	st	X+, r3
    3bc8:	4d 92       	st	X+, r4
    3bca:	5d 92       	st	X+, r5
    3bcc:	6d 92       	st	X+, r6
    3bce:	7d 92       	st	X+, r7
    3bd0:	8d 92       	st	X+, r8
    3bd2:	9d 92       	st	X+, r9
    3bd4:	ad 92       	st	X+, r10
    3bd6:	bd 92       	st	X+, r11
    3bd8:	cd 92       	st	X+, r12
    3bda:	dd 92       	st	X+, r13
    3bdc:	ed 92       	st	X+, r14
    3bde:	fd 92       	st	X+, r15
    3be0:	0d 93       	st	X+, r16
    3be2:	1d 93       	st	X+, r17
    3be4:	cd 93       	st	X+, r28
    3be6:	dd 93       	st	X+, r29
    3be8:	0f 90       	pop	r0
    3bea:	ff 91       	pop	r31
    3bec:	ef 91       	pop	r30
    3bee:	8d b7       	in	r24, 0x3d	; 61
    3bf0:	8d 93       	st	X+, r24
    3bf2:	8e b7       	in	r24, 0x3e	; 62
    3bf4:	8d 93       	st	X+, r24
    3bf6:	8f b7       	in	r24, 0x3f	; 63
    3bf8:	8d 93       	st	X+, r24
    3bfa:	ed 93       	st	X+, r30
    3bfc:	fd 93       	st	X+, r31
    3bfe:	88 27       	eor	r24, r24
    3c00:	99 27       	eor	r25, r25
    3c02:	0d 92       	st	X+, r0
    3c04:	21 c0       	rjmp	.+66     	; 0x3c48 <longjmp+0x42>

00003c06 <longjmp>:
    3c06:	dc 01       	movw	r26, r24
    3c08:	cb 01       	movw	r24, r22
    3c0a:	81 30       	cpi	r24, 0x01	; 1
    3c0c:	91 05       	cpc	r25, r1
    3c0e:	81 1d       	adc	r24, r1
    3c10:	2d 90       	ld	r2, X+
    3c12:	3d 90       	ld	r3, X+
    3c14:	4d 90       	ld	r4, X+
    3c16:	5d 90       	ld	r5, X+
    3c18:	6d 90       	ld	r6, X+
    3c1a:	7d 90       	ld	r7, X+
    3c1c:	8d 90       	ld	r8, X+
    3c1e:	9d 90       	ld	r9, X+
    3c20:	ad 90       	ld	r10, X+
    3c22:	bd 90       	ld	r11, X+
    3c24:	cd 90       	ld	r12, X+
    3c26:	dd 90       	ld	r13, X+
    3c28:	ed 90       	ld	r14, X+
    3c2a:	fd 90       	ld	r15, X+
    3c2c:	0d 91       	ld	r16, X+
    3c2e:	1d 91       	ld	r17, X+
    3c30:	cd 91       	ld	r28, X+
    3c32:	dd 91       	ld	r29, X+
    3c34:	ed 91       	ld	r30, X+
    3c36:	fd 91       	ld	r31, X+
    3c38:	0d 90       	ld	r0, X+
    3c3a:	f8 94       	cli
    3c3c:	fe bf       	out	0x3e, r31	; 62
    3c3e:	0f be       	out	0x3f, r0	; 63
    3c40:	ed bf       	out	0x3d, r30	; 61
    3c42:	ed 91       	ld	r30, X+
    3c44:	fd 91       	ld	r31, X+
    3c46:	0d 90       	ld	r0, X+
    3c48:	ef 93       	push	r30
    3c4a:	ff 93       	push	r31
    3c4c:	0f 92       	push	r0
    3c4e:	08 95       	ret

00003c50 <fputc>:
    3c50:	0f 93       	push	r16
    3c52:	1f 93       	push	r17
    3c54:	cf 93       	push	r28
    3c56:	df 93       	push	r29
    3c58:	18 2f       	mov	r17, r24
    3c5a:	09 2f       	mov	r16, r25
    3c5c:	eb 01       	movw	r28, r22
    3c5e:	8b 81       	ldd	r24, Y+3	; 0x03
    3c60:	81 fd       	sbrc	r24, 1
    3c62:	03 c0       	rjmp	.+6      	; 0x3c6a <fputc+0x1a>
    3c64:	8f ef       	ldi	r24, 0xFF	; 255
    3c66:	9f ef       	ldi	r25, 0xFF	; 255
    3c68:	20 c0       	rjmp	.+64     	; 0x3caa <fputc+0x5a>
    3c6a:	82 ff       	sbrs	r24, 2
    3c6c:	10 c0       	rjmp	.+32     	; 0x3c8e <fputc+0x3e>
    3c6e:	4e 81       	ldd	r20, Y+6	; 0x06
    3c70:	5f 81       	ldd	r21, Y+7	; 0x07
    3c72:	2c 81       	ldd	r18, Y+4	; 0x04
    3c74:	3d 81       	ldd	r19, Y+5	; 0x05
    3c76:	42 17       	cp	r20, r18
    3c78:	53 07       	cpc	r21, r19
    3c7a:	7c f4       	brge	.+30     	; 0x3c9a <fputc+0x4a>
    3c7c:	e8 81       	ld	r30, Y
    3c7e:	f9 81       	ldd	r31, Y+1	; 0x01
    3c80:	9f 01       	movw	r18, r30
    3c82:	2f 5f       	subi	r18, 0xFF	; 255
    3c84:	3f 4f       	sbci	r19, 0xFF	; 255
    3c86:	39 83       	std	Y+1, r19	; 0x01
    3c88:	28 83       	st	Y, r18
    3c8a:	10 83       	st	Z, r17
    3c8c:	06 c0       	rjmp	.+12     	; 0x3c9a <fputc+0x4a>
    3c8e:	e8 85       	ldd	r30, Y+8	; 0x08
    3c90:	f9 85       	ldd	r31, Y+9	; 0x09
    3c92:	81 2f       	mov	r24, r17
    3c94:	19 95       	eicall
    3c96:	89 2b       	or	r24, r25
    3c98:	29 f7       	brne	.-54     	; 0x3c64 <fputc+0x14>
    3c9a:	2e 81       	ldd	r18, Y+6	; 0x06
    3c9c:	3f 81       	ldd	r19, Y+7	; 0x07
    3c9e:	2f 5f       	subi	r18, 0xFF	; 255
    3ca0:	3f 4f       	sbci	r19, 0xFF	; 255
    3ca2:	3f 83       	std	Y+7, r19	; 0x07
    3ca4:	2e 83       	std	Y+6, r18	; 0x06
    3ca6:	81 2f       	mov	r24, r17
    3ca8:	90 2f       	mov	r25, r16
    3caa:	df 91       	pop	r29
    3cac:	cf 91       	pop	r28
    3cae:	1f 91       	pop	r17
    3cb0:	0f 91       	pop	r16
    3cb2:	08 95       	ret

00003cb4 <_exit>:
    3cb4:	f8 94       	cli

00003cb6 <__stop_program>:
    3cb6:	ff cf       	rjmp	.-2      	; 0x3cb6 <__stop_program>
